

Microchip Technology PIC18 LITE Macro Assembler V1.34 build -361300703 
                                                                                               Thu Mar 09 00:02:46 2017

Microchip Technology Omniscient Code Generator (Lite mode) build 201502162209
     1                           	processor	18F8722
     2                           	fnconf	rparam,??,?,0
     3                           	opt	pw 120
     4                           	opt	lm
     5                           	psect	smallconst,global,reloc=2,class=SMALLCONST,delta=1
     6                           	psect	cinit,global,reloc=2,class=CODE,delta=1
     7                           	psect	bssCOMRAM,global,class=COMRAM,space=1,delta=1
     8                           	psect	cstackBANK0,global,class=BANK0,space=1,delta=1
     9                           	psect	cstackCOMRAM,global,class=COMRAM,space=1,delta=1
    10                           	psect	text0,global,reloc=2,class=CODE,delta=1
    11                           	psect	text1,global,reloc=2,class=CODE,delta=1
    12                           	psect	text2,global,reloc=2,class=CODE,delta=1
    13                           	psect	text3,global,reloc=2,class=CODE,delta=1
    14                           	psect	text4,global,reloc=2,class=CODE,delta=1
    15                           	psect	text5,global,reloc=2,class=CODE,delta=1
    16                           	psect	text6,global,reloc=2,class=CODE,delta=1
    17                           	psect	text7,global,reloc=2,class=CODE,delta=1
    18                           	psect	text8,global,reloc=2,class=CODE,delta=1
    19                           	psect	text9,global,reloc=2,class=CODE,delta=1
    20                           	psect	text10,global,reloc=2,class=CODE,delta=1
    21                           	psect	text11,global,reloc=2,class=CODE,delta=1
    22                           	psect	text12,global,reloc=2,class=CODE,delta=1
    23                           	psect	text13,global,reloc=2,class=CODE,delta=1
    24                           	psect	text14,global,reloc=2,class=CODE,delta=1
    25                           	psect	text15,global,reloc=2,class=CODE,delta=1
    26                           	psect	text16,global,reloc=2,class=CODE,delta=1
    27                           	psect	text17,global,reloc=2,class=CODE,delta=1
    28                           	psect	text18,global,reloc=2,class=CODE,delta=1
    29                           	psect	text19,global,reloc=2,class=CODE,delta=1
    30                           	psect	text20,global,reloc=2,class=CODE,delta=1
    31                           	psect	text21,global,reloc=2,class=CODE,delta=1
    32                           	psect	text22,global,reloc=2,class=CODE,delta=1
    33                           	psect	text23,global,reloc=2,class=CODE,delta=1
    34                           	psect	text24,global,reloc=2,class=CODE,delta=1
    35                           	psect	text25,global,reloc=2,class=CODE,delta=1
    36                           	psect	text26,global,reloc=2,class=CODE,delta=1
    37                           	psect	text27,global,reloc=2,class=CODE,delta=1
    38                           	psect	text28,global,reloc=2,class=CODE,delta=1
    39                           	psect	text29,global,reloc=2,class=CODE,delta=1
    40                           	psect	intcode,global,reloc=2,class=CODE,delta=1
    41                           	psect	intcode_body,global,reloc=2,class=CODE,delta=1
    42                           	psect	text31,global,reloc=2,class=CODE,delta=1
    43                           	psect	text32,global,reloc=2,class=CODE,delta=1
    44                           	psect	intsave_regs,global,class=BIGRAM,space=1,delta=1
    45                           	psect	rparam,global,class=COMRAM,space=1,delta=1
    46  0000                     
    47                           	psect	smallconst
    48  001000                     __psmallconst:
    49                           	opt stack 0
    50  001000  00                 	db	0
    51  001001                     _dpowers:
    52                           	opt stack 0
    53  001001  0001               	dw	1
    54  001003  000A               	dw	10
    55  001005  0064               	dw	100
    56  001007  03E8               	dw	1000
    57  001009  2710               	dw	10000
    58  00100B                     __end_of_dpowers:
    59                           	opt stack 0
    60  0000                     _LATE	set	3981
    61  0000                     _LATEbits	set	3981
    62  0000                     _LATJ	set	3985
    63  0000                     _LATJbits	set	3985
    64  0000                     _PORTBbits	set	3969
    65  0000                     _SPBRGH1	set	3967
    66  0000                     _TRISA	set	3986
    67  0000                     _TRISB	set	3987
    68  0000                     _TRISCbits	set	3988
    69  0000                     _TRISE	set	3990
    70  0000                     _TRISJ	set	3994
    71  0000                     _ADCON0	set	4034
    72  0000                     _ADCON0bits	set	4034
    73  0000                     _ADCON1	set	4033
    74  0000                     _ADCON2	set	4032
    75  0000                     _ADRESH	set	4036
    76  0000                     _ADRESL	set	4035
    77  0000                     _PIE1bits	set	3997
    78  0000                     _PIR1bits	set	3998
    79  0000                     _RCONbits	set	4048
    80  0000                     _RCSTA1	set	4011
    81  0000                     _RCSTA1bits	set	4011
    82  0000                     _SPBRG1	set	4015
    83  0000                     _TXREG1	set	4013
    84  0000                     _TXSTA1	set	4012
    85  0000                     _TXSTA1bits	set	4012
    86  0000                     _T0CON	set	4053
    87  0000                     _T0CONbits	set	4053
    88  0000                     _TMR0H	set	4055
    89  0000                     _TMR0L	set	4054
    90  0000                     _INTCON2bits	set	4081
    91  0000                     _INTCON3bits	set	4080
    92  0000                     _INTCONbits	set	4082
    93  00100B                     STR_3:
    94  00100B  4D                 	db	77	;'M'
    95  00100C  6F                 	db	111	;'o'
    96  00100D  64                 	db	100	;'d'
    97  00100E  65                 	db	101	;'e'
    98  00100F  3A                 	db	58	;':'
    99  001010  20                 	db	32
   100  001011  55                 	db	85	;'U'
   101  001012  4C                 	db	76	;'L'
   102  001013  54                 	db	84	;'T'
   103  001014  52                 	db	82	;'R'
   104  001015  41                 	db	65	;'A'
   105  001016  53                 	db	83	;'S'
   106  001017  4F                 	db	79	;'O'
   107  001018  4E                 	db	78	;'N'
   108  001019  49                 	db	73	;'I'
   109  00101A  43                 	db	67	;'C'
   110  00101B  20                 	db	32
   111  00101C  44                 	db	68	;'D'
   112  00101D  49                 	db	73	;'I'
   113  00101E  53                 	db	83	;'S'
   114  00101F  54                 	db	84	;'T'
   115  001020  41                 	db	65	;'A'
   116  001021  4E                 	db	78	;'N'
   117  001022  43                 	db	67	;'C'
   118  001023  45                 	db	69	;'E'
   119  001024  0D                 	db	13
   120  001025  0A                 	db	10
   121  001026  00                 	db	0
   122  001027                     STR_1:
   123  001027  54                 	db	84	;'T'
   124  001028  65                 	db	101	;'e'
   125  001029  63                 	db	99	;'c'
   126  00102A  68                 	db	104	;'h'
   127  00102B  20                 	db	32
   128  00102C  44                 	db	68	;'D'
   129  00102D  65                 	db	101	;'e'
   130  00102E  6D                 	db	109	;'m'
   131  00102F  6F                 	db	111	;'o'
   132  001030  20                 	db	32
   133  001031  33                 	db	51	;'3'
   134  001032  20                 	db	32
   135  001033  54                 	db	84	;'T'
   136  001034  65                 	db	101	;'e'
   137  001035  73                 	db	115	;'s'
   138  001036  74                 	db	116	;'t'
   139  001037  20                 	db	32
   140  001038  50                 	db	80	;'P'
   141  001039  72                 	db	114	;'r'
   142  00103A  6F                 	db	111	;'o'
   143  00103B  67                 	db	103	;'g'
   144  00103C  72                 	db	114	;'r'
   145  00103D  61                 	db	97	;'a'
   146  00103E  6D                 	db	109	;'m'
   147  00103F  0D                 	db	13
   148  001040  0A                 	db	10
   149  001041  00                 	db	0
   150  001042                     STR_2:
   151  001042  4D                 	db	77	;'M'
   152  001043  6F                 	db	111	;'o'
   153  001044  64                 	db	100	;'d'
   154  001045  65                 	db	101	;'e'
   155  001046  3A                 	db	58	;':'
   156  001047  20                 	db	32
   157  001048  4C                 	db	76	;'L'
   158  001049  49                 	db	73	;'I'
   159  00104A  4E                 	db	78	;'N'
   160  00104B  45                 	db	69	;'E'
   161  00104C  20                 	db	32
   162  00104D  53                 	db	83	;'S'
   163  00104E  45                 	db	69	;'E'
   164  00104F  4E                 	db	78	;'N'
   165  001050  53                 	db	83	;'S'
   166  001051  49                 	db	73	;'I'
   167  001052  4E                 	db	78	;'N'
   168  001053  47                 	db	71	;'G'
   169  001054  0D                 	db	13
   170  001055  0A                 	db	10
   171  001056  00                 	db	0
   172  001057                     STR_4:
   173  001057  25                 	db	37
   174  001058  64                 	db	100	;'d'
   175  001059  20                 	db	32
   176  00105A  63                 	db	99	;'c'
   177  00105B  6D                 	db	109	;'m'
   178  00105C  0D                 	db	13
   179  00105D  0A                 	db	10
   180  00105E  00                 	db	0
   181                           
   182                           ; #config settings
   183  00105F  00                 	db	0	; dummy byte at the end
   184  0000                     
   185                           	psect	cinit
   186  001A02                     __pcinit:
   187                           	opt stack 0
   188  001A02                     start_initialization:
   189                           	opt stack 0
   190  001A02                     __initialization:
   191                           	opt stack 0
   192                           
   193                           ; Clear objects allocated to COMRAM (31 bytes)
   194  001A02  EE00  F02F         	lfsr	0,__pbssCOMRAM
   195  001A06  0E1F               	movlw	31
   196  001A08                     clear_0:
   197  001A08  6AEE               	clrf	postinc0,c
   198  001A0A  06E8               	decf	wreg,f,c
   199  001A0C  E1FD               	bnz	clear_0
   200  001A0E                     end_of_initialization:
   201                           	opt stack 0
   202  001A0E                     __end_of__initialization:
   203                           	opt stack 0
   204  001A0E  0100               	movlb	0
   205  001A10  EF03  F009         	goto	_main	;jump to C main() function
   206                           postinc0	equ	0xFEE
   207                           wreg	equ	0xFE8
   208                           
   209                           	psect	bssCOMRAM
   210  00002F                     __pbssCOMRAM:
   211                           	opt stack 0
   212  00002F                     _sensors:
   213                           	opt stack 0
   214  00002F                     	ds	10
   215  000039                     _dist_cm:
   216                           	opt stack 0
   217  000039                     	ds	3
   218  00003C                     _threshold:
   219                           	opt stack 0
   220  00003C                     	ds	2
   221  00003E                     _USART1_Status:
   222                           	opt stack 0
   223  00003E                     	ds	1
   224  00003F                     _dist_cm_tens:
   225                           	opt stack 0
   226  00003F                     	ds	1
   227  000040                     _dist_cm_units:
   228                           	opt stack 0
   229  000040                     	ds	1
   230  000041                     _echo_ready:
   231                           	opt stack 0
   232  000041                     	ds	1
   233  000042                     _i:
   234                           	opt stack 0
   235  000042                     	ds	1
   236  000043                     _mode:
   237                           	opt stack 0
   238  000043                     	ds	1
   239  000044                     _buffer:
   240                           	opt stack 0
   241  000044                     	ds	8
   242  00004C                     _echo_time:
   243                           	opt stack 0
   244  00004C                     	ds	2
   245                           postinc0	equ	0xFEE
   246                           wreg	equ	0xFE8
   247                           
   248                           	psect	cstackBANK0
   249  000060                     __pcstackBANK0:
   250                           	opt stack 0
   251  000060                     sprintf@ap:
   252                           	opt stack 0
   253                           
   254                           ; 2 bytes @ 0x0
   255  000060                     	ds	2
   256  000062                     sprintf@flag:
   257                           	opt stack 0
   258                           
   259                           ; 1 bytes @ 0x2
   260  000062                     	ds	1
   261  000063                     sprintf@prec:
   262                           	opt stack 0
   263                           
   264                           ; 1 bytes @ 0x3
   265  000063                     	ds	1
   266  000064                     sprintf@val:
   267                           	opt stack 0
   268                           
   269                           ; 2 bytes @ 0x4
   270  000064                     	ds	2
   271  000066                     sprintf@c:
   272                           	opt stack 0
   273                           
   274                           ; 1 bytes @ 0x6
   275  000066                     	ds	1
   276                           postinc0	equ	0xFEE
   277                           wreg	equ	0xFE8
   278                           
   279                           	psect	cstackCOMRAM
   280  000001                     __pcstackCOMRAM:
   281                           	opt stack 0
   282  000001                     ?_ReadTimer0:
   283                           	opt stack 0
   284  000001                     i2WriteTimer0@timer0:
   285                           	opt stack 0
   286                           
   287                           ; 2 bytes @ 0x0
   288  000001                     	ds	2
   289  000003                     ReadTimer0@timer:
   290                           	opt stack 0
   291  000003                     i2WriteTimer0@timer:
   292                           	opt stack 0
   293                           
   294                           ; 2 bytes @ 0x2
   295  000003                     	ds	2
   296  000005                     ??_isr:
   297                           
   298                           ; 0 bytes @ 0x4
   299  000005                     	ds	14
   300  000013                     ??_SetChanADC:
   301  000013                     ??_Delay10KTCYx:
   302  000013                     ?_ReadADC:
   303                           	opt stack 0
   304  000013                     ?___lwdiv:
   305                           	opt stack 0
   306  000013                     ?___ftpack:
   307                           	opt stack 0
   308  000013                     ?___fttol:
   309                           	opt stack 0
   310  000013                     SelectLED@sel:
   311                           	opt stack 0
   312  000013                     OpenADC@config2:
   313                           	opt stack 0
   314  000013                     Write1USART@data:
   315                           	opt stack 0
   316  000013                     Delay1KTCYx@unit:
   317                           	opt stack 0
   318  000013                     Delay1TCYx@unit:
   319                           	opt stack 0
   320  000013                     WriteTimer0@timer0:
   321                           	opt stack 0
   322  000013                     Open1USART@spbrg:
   323                           	opt stack 0
   324  000013                     ___lwdiv@dividend:
   325                           	opt stack 0
   326  000013                     ___ftpack@arg:
   327                           	opt stack 0
   328  000013                     ___fttol@f1:
   329                           	opt stack 0
   330                           
   331                           ; 3 bytes @ 0x12
   332  000013                     	ds	1
   333  000014                     OpenADC@portconfig:
   334                           	opt stack 0
   335  000014                     SetChanADC@channel:
   336                           	opt stack 0
   337  000014                     Delay10KTCYx@unit:
   338                           	opt stack 0
   339  000014                     putrs1USART@data:
   340                           	opt stack 0
   341  000014                     puts1USART@data:
   342                           	opt stack 0
   343                           
   344                           ; 2 bytes @ 0x13
   345  000014                     	ds	1
   346  000015                     ??_OpenADC:
   347  000015                     ??_ReadADC:
   348  000015                     Open1USART@config:
   349                           	opt stack 0
   350  000015                     WriteTimer0@timer:
   351                           	opt stack 0
   352  000015                     ___lwdiv@divisor:
   353                           	opt stack 0
   354                           
   355                           ; 2 bytes @ 0x14
   356  000015                     	ds	1
   357  000016                     ___ftpack@exp:
   358                           	opt stack 0
   359                           
   360                           ; 1 bytes @ 0x15
   361  000016                     	ds	1
   362  000017                     ??___fttol:
   363  000017                     ?_GetADCReading:
   364                           	opt stack 0
   365  000017                     OpenADC@config:
   366                           	opt stack 0
   367  000017                     ___ftpack@sign:
   368                           	opt stack 0
   369  000017                     ___lwdiv@counter:
   370                           	opt stack 0
   371                           
   372                           ; 1 bytes @ 0x16
   373  000017                     	ds	1
   374  000018                     ??___ftpack:
   375  000018                     ___lwdiv@quotient:
   376                           	opt stack 0
   377                           
   378                           ; 2 bytes @ 0x17
   379  000018                     	ds	1
   380  000019                     GetADCReading@channel:
   381                           	opt stack 0
   382                           
   383                           ; 1 bytes @ 0x18
   384  000019                     	ds	1
   385  00001A                     ?___lwmod:
   386                           	opt stack 0
   387  00001A                     ___lwmod@dividend:
   388                           	opt stack 0
   389                           
   390                           ; 2 bytes @ 0x19
   391  00001A                     	ds	1
   392  00001B                     ?___lwtoft:
   393                           	opt stack 0
   394  00001B                     ___lwtoft@c:
   395                           	opt stack 0
   396                           
   397                           ; 2 bytes @ 0x1A
   398  00001B                     	ds	1
   399  00001C                     ___fttol@sign1:
   400                           	opt stack 0
   401  00001C                     ___lwmod@divisor:
   402                           	opt stack 0
   403                           
   404                           ; 2 bytes @ 0x1B
   405  00001C                     	ds	1
   406  00001D                     ___fttol@lval:
   407                           	opt stack 0
   408                           
   409                           ; 4 bytes @ 0x1C
   410  00001D                     	ds	1
   411  00001E                     ?___ftmul:
   412                           	opt stack 0
   413  00001E                     ___lwmod@counter:
   414                           	opt stack 0
   415  00001E                     ___ftmul@f1:
   416                           	opt stack 0
   417                           
   418                           ; 3 bytes @ 0x1D
   419  00001E                     	ds	3
   420  000021                     ___fttol@exp1:
   421                           	opt stack 0
   422  000021                     ___ftmul@f2:
   423                           	opt stack 0
   424                           
   425                           ; 3 bytes @ 0x20
   426  000021                     	ds	1
   427  000022                     ?_sprintf:
   428                           	opt stack 0
   429  000022                     sprintf@sp:
   430                           	opt stack 0
   431                           
   432                           ; 2 bytes @ 0x21
   433  000022                     	ds	2
   434  000024                     ??___ftmul:
   435  000024                     sprintf@f:
   436                           	opt stack 0
   437                           
   438                           ; 2 bytes @ 0x23
   439  000024                     	ds	3
   440  000027                     ___ftmul@exp:
   441                           	opt stack 0
   442                           
   443                           ; 1 bytes @ 0x26
   444  000027                     	ds	1
   445  000028                     ??_sprintf:
   446  000028                     ___ftmul@f3_as_product:
   447                           	opt stack 0
   448                           
   449                           ; 3 bytes @ 0x27
   450  000028                     	ds	3
   451  00002B                     ___ftmul@cntr:
   452                           	opt stack 0
   453                           
   454                           ; 1 bytes @ 0x2A
   455  00002B                     	ds	1
   456  00002C                     ___ftmul@sign:
   457                           	opt stack 0
   458                           
   459                           ; 1 bytes @ 0x2B
   460  00002C                     	ds	1
   461  00002D                     
   462                           ; 0 bytes @ 0x2C
   463  00002D                     	ds	2
   464                           postinc0	equ	0xFEE
   465                           wreg	equ	0xFE8
   466                           
   467 ;;
   468 ;;Main: autosize = 0, tempsize = 2, incstack = 0, save=0
   469 ;;
   470 ;; *************** function _main *****************
   471 ;; Defined at:
   472 ;;		line 164 in file "TechDemo3_Test_Routine.c"
   473 ;; Parameters:    Size  Location     Type
   474 ;;		None
   475 ;; Auto vars:     Size  Location     Type
   476 ;;		None
   477 ;; Return value:  Size  Location     Type
   478 ;;		None               void
   479 ;; Registers used:
   480 ;;		wreg, fsr2l, fsr2h, status,2, status,0, tblptrl, tblptrh, tblptru, prodl, prodh, cstack
   481 ;; Tracked objects:
   482 ;;		On entry : 0/0
   483 ;;		On exit  : 0/0
   484 ;;		Unchanged: 0/0
   485 ;; Data sizes:     COMRAM   BANK0   BANK1   BANK2   BANK3   BANK4   BANK5   BANK6   BANK7   BANK8   BANK9  BANK10  BANK1
      +1  BANK12  BANK13  BANK14  BANK15
   486 ;;      Params:         0       0       0       0       0       0       0       0       0       0       0       0       
      +0       0       0       0       0
   487 ;;      Locals:         0       0       0       0       0       0       0       0       0       0       0       0       
      +0       0       0       0       0
   488 ;;      Temps:          2       0       0       0       0       0       0       0       0       0       0       0       
      +0       0       0       0       0
   489 ;;      Totals:         2       0       0       0       0       0       0       0       0       0       0       0       
      +0       0       0       0       0
   490 ;;Total ram usage:        2 bytes
   491 ;; Hardware stack levels required when called:    5
   492 ;; This function calls:
   493 ;;		_ChangeMode
   494 ;;		_ConfigADC
   495 ;;		_ConfigIO
   496 ;;		_ConfigInterrupts
   497 ;;		_ConfigTimer0
   498 ;;		_ConfigUSART
   499 ;;		_Delay10KTCYx
   500 ;;		_Delay1KTCYx
   501 ;;		_GetADCReading
   502 ;;		_GetDistance
   503 ;;		_SelectLED
   504 ;;		___ftmul
   505 ;;		___fttol
   506 ;;		___lwtoft
   507 ;;		_putrs1USART
   508 ;;		_puts1USART
   509 ;;		_sprintf
   510 ;; This function is called by:
   511 ;;		Startup code after reset
   512 ;; This function uses a non-reentrant model
   513 ;;
   514                           
   515                           	psect	text0
   516  001206                     __ptext0:
   517                           	opt stack 0
   518  001206                     _main:
   519                           	opt stack 26
   520                           
   521                           ;TechDemo3_Test_Routine.c: 166: ConfigIO();
   522                           
   523                           ;incstack = 0
   524  001206  ECF6  F00C         	call	_ConfigIO	;wreg free
   525                           
   526                           ;TechDemo3_Test_Routine.c: 167: ConfigADC();
   527  00120A  EC50  F00D         	call	_ConfigADC	;wreg free
   528                           
   529                           ;TechDemo3_Test_Routine.c: 168: ConfigTimer0();
   530  00120E  EC1C  F00D         	call	_ConfigTimer0	;wreg free
   531                           
   532                           ;TechDemo3_Test_Routine.c: 169: ConfigUSART();
   533  001212  ECC6  F00C         	call	_ConfigUSART	;wreg free
   534                           
   535                           ;TechDemo3_Test_Routine.c: 170: ConfigInterrupts();
   536  001216  EC48  F00D         	call	_ConfigInterrupts	;wreg free
   537  00121A  D000               	goto	l1963
   538  00121C                     l1963:
   539                           
   540                           ;TechDemo3_Test_Routine.c: 174: putrs1USART("Mode: LINE SENSING\r\n");
   541  00121C  0E42               	movlw	low STR_2
   542  00121E  6E14               	movwf	putrs1USART@data,c
   543  001220  0E10               	movlw	high STR_2
   544  001222  6E15               	movwf	putrs1USART@data+1,c
   545  001224  EC70  F00C         	call	_putrs1USART	;wreg free
   546                           
   547                           ;TechDemo3_Test_Routine.c: 176: while (mode == 0) {
   548  001228  D03B               	goto	l1987
   549  00122A                     l1965:
   550                           
   551                           ;TechDemo3_Test_Routine.c: 178: LATJ = 0x00;
   552  00122A  0E00               	movlw	0
   553  00122C  6E91               	movwf	3985,c	;volatile
   554                           
   555                           ;TechDemo3_Test_Routine.c: 179: LATE = 0xFF;
   556  00122E  688D               	setf	3981,c	;volatile
   557                           
   558                           ;TechDemo3_Test_Routine.c: 181: for (i = 0; i < 6; i++) {
   559  001230  0E00               	movlw	0
   560  001232  6E42               	movwf	_i,c
   561  001234                     l1969:
   562  001234  0E05               	movlw	5
   563  001236  6442               	cpfsgt	_i,c
   564  001238  D001               	goto	l1973
   565  00123A  D032               	goto	l1987
   566  00123C                     l1973:
   567                           
   568                           ;TechDemo3_Test_Routine.c: 182: if (i < 5) {
   569  00123C  0E05               	movlw	5
   570  00123E  6042               	cpfslt	_i,c
   571  001240  D021               	goto	l1981
   572                           
   573                           ;TechDemo3_Test_Routine.c: 183: sensors[i] = GetADCReading(i);
   574  001242  5042               	movf	_i,w,c
   575  001244  EC4F  F00B         	call	_GetADCReading
   576  001248  5042               	movf	_i,w,c
   577  00124A  0D02               	mullw	2
   578  00124C  0E2F               	movlw	low _sensors
   579  00124E  24F3               	addwf	prodl,w,c
   580  001250  6ED9               	movwf	fsr2l,c
   581  001252  0E00               	movlw	high _sensors
   582  001254  20F4               	addwfc	prodh,w,c
   583  001256  6EDA               	movwf	fsr2h,c
   584  001258  C017  FFDE         	movff	?_GetADCReading,postinc2
   585  00125C  C018  FFDD         	movff	?_GetADCReading+1,postdec2
   586                           
   587                           ;TechDemo3_Test_Routine.c: 184: if (sensors[i] > threshold) {
   588  001260  5042               	movf	_i,w,c
   589  001262  0D02               	mullw	2
   590  001264  0E2F               	movlw	low _sensors
   591  001266  24F3               	addwf	prodl,w,c
   592  001268  6ED9               	movwf	fsr2l,c
   593  00126A  0E00               	movlw	high _sensors
   594  00126C  20F4               	addwfc	prodh,w,c
   595  00126E  6EDA               	movwf	fsr2h,c
   596  001270  50DE               	movf	postinc2,w,c
   597  001272  5C3C               	subwf	_threshold,w,c
   598  001274  50DE               	movf	postinc2,w,c
   599  001276  583D               	subwfb	_threshold+1,w,c
   600  001278  B0D8               	btfsc	status,0,c
   601  00127A  D00C               	goto	l1983
   602                           
   603                           ;TechDemo3_Test_Routine.c: 185: SelectLED(i);
   604  00127C  5042               	movf	_i,w,c
   605  00127E  EC51  F00C         	call	_SelectLED
   606                           
   607                           ;TechDemo3_Test_Routine.c: 186: }
   608                           ;TechDemo3_Test_Routine.c: 187: } else {
   609  001282  D008               	goto	l1983
   610  001284                     l1981:
   611                           
   612                           ;TechDemo3_Test_Routine.c: 188: threshold = GetADCReading(5);
   613  001284  0E05               	movlw	5
   614  001286  EC4F  F00B         	call	_GetADCReading
   615  00128A  C017  F03C         	movff	?_GetADCReading,_threshold
   616  00128E  C018  F03D         	movff	?_GetADCReading+1,_threshold+1
   617  001292  D000               	goto	l1983
   618  001294                     l1983:
   619                           
   620                           ;TechDemo3_Test_Routine.c: 189: }
   621                           ;TechDemo3_Test_Routine.c: 190: Delay1KTCYx(10);
   622  001294  0E0A               	movlw	10
   623  001296  EC13  F00D         	call	_Delay1KTCYx
   624  00129A  2A42               	incf	_i,f,c
   625  00129C  D7CB               	goto	l1969
   626  00129E  D000               	goto	l1987
   627  0012A0                     l1987:
   628  0012A0  5043               	movf	_mode,w,c	;volatile
   629  0012A2  B4D8               	btfsc	status,2,c
   630  0012A4  D7C2               	goto	l1965
   631                           
   632                           ;TechDemo3_Test_Routine.c: 191: }
   633                           ;TechDemo3_Test_Routine.c: 192: }
   634                           ;TechDemo3_Test_Routine.c: 194: ChangeMode();
   635  0012A6  EC9F  F00C         	call	_ChangeMode	;wreg free
   636                           
   637                           ;TechDemo3_Test_Routine.c: 195: putrs1USART("Mode: ULTRASONIC DISTANCE\r\n");
   638  0012AA  0E0B               	movlw	low STR_3
   639  0012AC  6E14               	movwf	putrs1USART@data,c
   640  0012AE  0E10               	movlw	high STR_3
   641  0012B0  6E15               	movwf	putrs1USART@data+1,c
   642  0012B2  EC70  F00C         	call	_putrs1USART	;wreg free
   643                           
   644                           ;TechDemo3_Test_Routine.c: 197: while (mode == 1) {
   645  0012B6  D043               	goto	l2011
   646  0012B8                     l1993:
   647                           
   648                           ;TechDemo3_Test_Routine.c: 198: GetDistance();
   649  0012B8  EC0A  F00D         	call	_GetDistance	;wreg free
   650                           
   651                           ;TechDemo3_Test_Routine.c: 200: LATJbits.LATJ0 = 1;
   652  0012BC  8091               	bsf	3985,0,c	;volatile
   653                           
   654                           ;TechDemo3_Test_Routine.c: 201: Delay1KTCYx(100);
   655  0012BE  0E64               	movlw	100
   656  0012C0  EC13  F00D         	call	_Delay1KTCYx
   657                           
   658                           ;TechDemo3_Test_Routine.c: 202: LATJbits.LATJ0 = 0;
   659  0012C4  9091               	bcf	3985,0,c	;volatile
   660                           
   661                           ;TechDemo3_Test_Routine.c: 206: echo_ready = 0;
   662  0012C6  0E00               	movlw	0
   663  0012C8  6E41               	movwf	_echo_ready,c	;volatile
   664                           
   665                           ;TechDemo3_Test_Routine.c: 207: dist_cm = 0.883 * echo_time;
   666  0012CA  C04C  F01B         	movff	_echo_time,___lwtoft@c	;volatile
   667  0012CE  C04D  F01C         	movff	_echo_time+1,___lwtoft@c+1	;volatile
   668  0012D2  ECB3  F00C         	call	___lwtoft	;wreg free
   669  0012D6  C01B  F01E         	movff	?___lwtoft,___ftmul@f1
   670  0012DA  C01C  F01F         	movff	?___lwtoft+1,___ftmul@f1+1
   671  0012DE  C01D  F020         	movff	?___lwtoft+2,___ftmul@f1+2
   672  0012E2  0E0C               	movlw	12
   673  0012E4  6E21               	movwf	___ftmul@f2,c
   674  0012E6  0E62               	movlw	98
   675  0012E8  6E22               	movwf	___ftmul@f2+1,c
   676  0012EA  0E3F               	movlw	63
   677  0012EC  6E23               	movwf	___ftmul@f2+2,c
   678  0012EE  ECA7  F009         	call	___ftmul	;wreg free
   679  0012F2  C01E  F039         	movff	?___ftmul,_dist_cm
   680  0012F6  C01F  F03A         	movff	?___ftmul+1,_dist_cm+1
   681  0012FA  C020  F03B         	movff	?___ftmul+2,_dist_cm+2
   682                           
   683                           ;TechDemo3_Test_Routine.c: 209: sprintf(buffer, "%d cm\r\n", (int) dist_cm);
   684  0012FE  0E44               	movlw	low _buffer
   685  001300  6E22               	movwf	sprintf@sp,c
   686  001302  0E00               	movlw	high _buffer
   687  001304  6E23               	movwf	sprintf@sp+1,c
   688  001306  0E57               	movlw	low STR_4
   689  001308  6E24               	movwf	sprintf@f,c
   690  00130A  0E10               	movlw	high STR_4
   691  00130C  6E25               	movwf	sprintf@f+1,c
   692  00130E  C039  F013         	movff	_dist_cm,___fttol@f1
   693  001312  C03A  F014         	movff	_dist_cm+1,___fttol@f1+1
   694  001316  C03B  F015         	movff	_dist_cm+2,___fttol@f1+2
   695  00131A  EC23  F00A         	call	___fttol	;wreg free
   696  00131E  C013  F026         	movff	?___fttol,?_sprintf+4
   697  001322  C014  F027         	movff	?___fttol+1,?_sprintf+5
   698  001326  EC30  F008         	call	_sprintf	;wreg free
   699                           
   700                           ;TechDemo3_Test_Routine.c: 210: puts1USART(buffer);
   701  00132A  0E44               	movlw	low _buffer
   702  00132C  6E14               	movwf	puts1USART@data,c
   703  00132E  0E00               	movlw	high _buffer
   704  001330  6E15               	movwf	puts1USART@data+1,c
   705  001332  EC8B  F00C         	call	_puts1USART	;wreg free
   706                           
   707                           ;TechDemo3_Test_Routine.c: 212: Delay10KTCYx(100);
   708  001336  0E64               	movlw	100
   709  001338  ECD4  F00C         	call	_Delay10KTCYx
   710  00133C  D000               	goto	l2011
   711  00133E                     l2011:
   712  00133E  0443               	decf	_mode,w,c	;volatile
   713  001340  B4D8               	btfsc	status,2,c
   714  001342  D7BA               	goto	l1993
   715                           
   716                           ;TechDemo3_Test_Routine.c: 214: }
   717                           ;TechDemo3_Test_Routine.c: 216: ChangeMode();
   718  001344  EC9F  F00C         	call	_ChangeMode	;wreg free
   719  001348  D769               	goto	l1963
   720  00134A  EF0C  F000         	goto	start
   721  00134E                     __end_of_main:
   722                           	opt stack 0
   723                           prodh	equ	0xFF4
   724                           prodl	equ	0xFF3
   725                           postinc0	equ	0xFEE
   726                           wreg	equ	0xFE8
   727                           postinc2	equ	0xFDE
   728                           postdec2	equ	0xFDD
   729                           fsr2h	equ	0xFDA
   730                           fsr2l	equ	0xFD9
   731                           status	equ	0xFD8
   732                           
   733 ;; *************** function _sprintf *****************
   734 ;; Defined at:
   735 ;;		line 492 in file "C:\Program Files (x86)\Microchip\xc8\v1.34\sources\common\doprnt.c"
   736 ;; Parameters:    Size  Location     Type
   737 ;;  sp              2   33[COMRAM] PTR unsigned char 
   738 ;;		 -> buffer(8), 
   739 ;;  f               2   35[COMRAM] PTR const unsigned char 
   740 ;;		 -> STR_4(8), 
   741 ;; Auto vars:     Size  Location     Type
   742 ;;  tmpval          4    0        struct .
   743 ;;  cp              3    0        PTR const unsigned char 
   744 ;;  val             2    4[BANK0 ] unsigned int 
   745 ;;  ap              2    0[BANK0 ] PTR void [1]
   746 ;;		 -> ?_sprintf(2), 
   747 ;;  len             2    0        unsigned int 
   748 ;;  c               1    6[BANK0 ] char 
   749 ;;  prec            1    3[BANK0 ] char 
   750 ;;  flag            1    2[BANK0 ] unsigned char 
   751 ;; Return value:  Size  Location     Type
   752 ;;                  2   33[COMRAM] int 
   753 ;; Registers used:
   754 ;;		wreg, fsr2l, fsr2h, status,2, status,0, tblptrl, tblptrh, tblptru, prodl, prodh, cstack
   755 ;; Tracked objects:
   756 ;;		On entry : 0/0
   757 ;;		On exit  : 0/0
   758 ;;		Unchanged: 0/0
   759 ;; Data sizes:     COMRAM   BANK0   BANK1   BANK2   BANK3   BANK4   BANK5   BANK6   BANK7   BANK8   BANK9  BANK10  BANK1
      +1  BANK12  BANK13  BANK14  BANK15
   760 ;;      Params:         6       0       0       0       0       0       0       0       0       0       0       0       
      +0       0       0       0       0
   761 ;;      Locals:         0       7       0       0       0       0       0       0       0       0       0       0       
      +0       0       0       0       0
   762 ;;      Temps:          1       0       0       0       0       0       0       0       0       0       0       0       
      +0       0       0       0       0
   763 ;;      Totals:         7       7       0       0       0       0       0       0       0       0       0       0       
      +0       0       0       0       0
   764 ;;Total ram usage:       14 bytes
   765 ;; Hardware stack levels used:    1
   766 ;; Hardware stack levels required when called:    3
   767 ;; This function calls:
   768 ;;		___lwdiv
   769 ;;		___lwmod
   770 ;; This function is called by:
   771 ;;		_main
   772 ;; This function uses a non-reentrant model
   773 ;;
   774                           
   775                           	psect	text1
   776  001060                     __ptext1:
   777                           	opt stack 0
   778  001060                     _sprintf:
   779                           	opt stack 27
   780                           
   781                           ;doprnt.c: 494: va_list ap;
   782                           ;doprnt.c: 499: signed char c;
   783                           ;doprnt.c: 506: signed char prec;
   784                           ;doprnt.c: 508: unsigned char flag;
   785                           ;doprnt.c: 523: union {
   786                           ;doprnt.c: 524: unsigned long vd;
   787                           ;doprnt.c: 525: double integ;
   788                           ;doprnt.c: 526: } tmpval;
   789                           ;doprnt.c: 528: unsigned int val;
   790                           ;doprnt.c: 529: unsigned len;
   791                           ;doprnt.c: 530: const char * cp;
   792                           ;doprnt.c: 533: *ap = __va_start();
   793                           
   794                           ;incstack = 0
   795  001060  0E26               	movlw	low (?_sprintf+4)
   796  001062  0100               	movlb	0	; () banked
   797  001064  6F60               	movwf	sprintf@ap& (0+255),b
   798  001066  0E00               	movlw	high (?_sprintf+4)
   799  001068  0100               	movlb	0	; () banked
   800  00106A  6F61               	movwf	(sprintf@ap+1)& (0+255),b
   801                           
   802                           ;doprnt.c: 536: while(c = *f++) {
   803  00106C  D0B3               	goto	l1947
   804  00106E                     l1895:
   805                           
   806                           ; BSR set to: 0
   807                           ;doprnt.c: 538: if(c != '%')
   808  00106E  0E25               	movlw	37
   809  001070  0100               	movlb	0	; () banked
   810  001072  1966               	xorwf	sprintf@c& (0+255),w,b
   811  001074  B4D8               	btfsc	status,2,c
   812  001076  D009               	goto	l1901
   813                           
   814                           ; BSR set to: 0
   815                           ;doprnt.c: 540: {
   816                           ;doprnt.c: 541: ((*sp++ = (c)));
   817  001078  C022  FFD9         	movff	sprintf@sp,fsr2l
   818  00107C  C023  FFDA         	movff	sprintf@sp+1,fsr2h
   819  001080  C066  FFDF         	movff	sprintf@c,indf2
   820                           
   821                           ; BSR set to: 0
   822  001084  4A22               	infsnz	sprintf@sp,f,c
   823  001086  2A23               	incf	sprintf@sp+1,f,c
   824                           
   825                           ;doprnt.c: 542: continue;
   826  001088  D0A5               	goto	l1947
   827  00108A                     l1901:
   828                           
   829                           ; BSR set to: 0
   830                           ;doprnt.c: 543: }
   831                           ;doprnt.c: 548: flag = 0;
   832  00108A  0E00               	movlw	0
   833  00108C  0100               	movlb	0	; () banked
   834  00108E  6F62               	movwf	sprintf@flag& (0+255),b
   835                           
   836                           ;doprnt.c: 635: switch(c = *f++) {
   837  001090  D004               	goto	l1905
   838                           
   839                           ; BSR set to: 0
   840                           ;doprnt.c: 638: goto alldone;
   841                           
   842                           ;doprnt.c: 637: case 0:
   843  001092  D0B1               	goto	l1949
   844                           
   845                           ; BSR set to: 0
   846                           ;doprnt.c: 698: case 'i':
   847                           ;doprnt.c: 699: break;
   848                           
   849                           ; BSR set to: 0
   850                           
   851                           ;doprnt.c: 697: case 'd':
   852  001094  D018               	goto	l1907
   853                           
   854                           ; BSR set to: 0
   855                           ;doprnt.c: 813: continue;
   856                           
   857                           ;doprnt.c: 802: default:
   858  001096  D09E               	goto	l1947
   859                           
   860                           ; BSR set to: 0
   861                           ;doprnt.c: 822: }
   862  001098  D016               	goto	l1907
   863  00109A                     l1905:
   864                           
   865                           ; BSR set to: 0
   866  00109A  C024  FFF6         	movff	sprintf@f,tblptrl
   867  00109E  C025  FFF7         	movff	sprintf@f+1,tblptrh
   868  0010A2  4A24               	infsnz	sprintf@f,f,c
   869  0010A4  2A25               	incf	sprintf@f+1,f,c
   870  0010A6                     	if	0	;tblptru may be non-zero
   871  0010A6                     	endif
   872  0010A6                     	if	1	;Program memory is > 0xFFFF, there are 3 active tblptr bytes
   873  0010A6  0E00               	movlw	low (__mediumconst shr (0+16))
   874  0010A8  6EF8               	movwf	tblptru,c
   875  0010AA                     	endif
   876  0010AA  0008               	tblrd		*
   877  0010AC  CFF5 F066          	movff	tablat,sprintf@c
   878  0010B0  0100               	movlb	0	; () banked
   879  0010B2  5166               	movf	sprintf@c& (0+255),w,b
   880                           
   881                           ; Switch size 1, requested type "space"
   882                           ; Number of cases is 3, Range of values is 0 to 105
   883                           ; switch strategies available:
   884                           ; Name         Instructions Cycles
   885                           ; simple_byte           10     6 (average)
   886                           ;	Chosen strategy is simple_byte
   887  0010B4  0A00               	xorlw	0	; case 0
   888  0010B6  B4D8               	btfsc	status,2,c
   889  0010B8  D09E               	goto	l1949
   890  0010BA  0A64               	xorlw	100	; case 100
   891  0010BC  B4D8               	btfsc	status,2,c
   892  0010BE  D003               	goto	l1907
   893  0010C0  0A0D               	xorlw	13	; case 105
   894  0010C2  A4D8               	btfss	status,2,c
   895  0010C4  D087               	goto	l1947
   896  0010C6                     l1907:
   897                           
   898                           ; BSR set to: 0
   899                           ;doprnt.c: 1253: {
   900                           ;doprnt.c: 1259: val = (int)(*(int *)__va_arg((*(int **)ap), (int)0));
   901  0010C6  C060  FFD9         	movff	sprintf@ap,fsr2l
   902  0010CA  C061  FFDA         	movff	sprintf@ap+1,fsr2h
   903  0010CE  CFDE F064          	movff	postinc2,sprintf@val
   904  0010D2  CFDD F065          	movff	postdec2,sprintf@val+1
   905                           
   906                           ; BSR set to: 0
   907  0010D6  0E02               	movlw	2
   908  0010D8  0100               	movlb	0	; () banked
   909  0010DA  2760               	addwf	sprintf@ap& (0+255),f,b
   910  0010DC  0E00               	movlw	0
   911  0010DE  2361               	addwfc	(sprintf@ap+1)& (0+255),f,b
   912                           
   913                           ; BSR set to: 0
   914                           ;doprnt.c: 1261: if((int)val < 0) {
   915  0010E0  0100               	movlb	0	; () banked
   916  0010E2  AF65               	btfss	(sprintf@val+1)& (0+255),7,b
   917  0010E4  D009               	goto	l1917
   918                           
   919                           ; BSR set to: 0
   920                           ;doprnt.c: 1262: flag |= 0x03;
   921  0010E6  0E03               	movlw	3
   922  0010E8  0100               	movlb	0	; () banked
   923  0010EA  1362               	iorwf	sprintf@flag& (0+255),f,b
   924                           
   925                           ; BSR set to: 0
   926                           ;doprnt.c: 1263: val = -val;
   927  0010EC  0100               	movlb	0	; () banked
   928  0010EE  6D64               	negf	sprintf@val& (0+255),b
   929  0010F0  1F65               	comf	(sprintf@val+1)& (0+255),f,b
   930  0010F2  B0D8               	btfsc	status,0,c
   931  0010F4  2B65               	incf	(sprintf@val+1)& (0+255),f,b
   932  0010F6  D000               	goto	l1917
   933  0010F8                     l1917:
   934                           
   935                           ; BSR set to: 0
   936                           ;doprnt.c: 1264: }
   937                           ;doprnt.c: 1266: }
   938                           ;doprnt.c: 1305: for(c = 1 ; c != sizeof dpowers/sizeof dpowers[0] ; c++)
   939  0010F8  0E01               	movlw	1
   940  0010FA  0100               	movlb	0	; () banked
   941  0010FC  6F66               	movwf	sprintf@c& (0+255),b
   942  0010FE                     l1919:
   943                           
   944                           ; BSR set to: 0
   945  0010FE  0E05               	movlw	5
   946  001100  0100               	movlb	0	; () banked
   947  001102  1966               	xorwf	sprintf@c& (0+255),w,b
   948  001104  B4D8               	btfsc	status,2,c
   949  001106  D01D               	goto	l1931
   950  001108  D001               	goto	l1923
   951                           
   952                           ; BSR set to: 0
   953  00110A  D01B               	goto	l1931
   954  00110C                     l1923:
   955                           
   956                           ; BSR set to: 0
   957                           ;doprnt.c: 1306: if(val < dpowers[c])
   958  00110C  0100               	movlb	0	; () banked
   959  00110E  5166               	movf	sprintf@c& (0+255),w,b
   960  001110  0D02               	mullw	2
   961  001112  0E01               	movlw	low _dpowers
   962  001114  24F3               	addwf	prodl,w,c
   963  001116  6EF6               	movwf	tblptrl,c
   964  001118  0E10               	movlw	high _dpowers
   965  00111A  20F4               	addwfc	prodh,w,c
   966  00111C  6EF7               	movwf	tblptrh,c
   967  00111E                     	if	1	;There are 3 active tblptr bytes
   968  00111E  6AF8               	clrf	tblptru,c
   969  001120  0E00               	movlw	low (__mediumconst shr (0+16))
   970  001122  22F8               	addwfc	tblptru,f,c
   971  001124                     	endif
   972  001124  0009               	tblrd		*+
   973  001126  50F5               	movf	tablat,w,c
   974  001128  0100               	movlb	0	; () banked
   975  00112A  5D64               	subwf	sprintf@val& (0+255),w,b
   976  00112C  0009               	tblrd		*+
   977  00112E  50F5               	movf	tablat,w,c
   978  001130  0100               	movlb	0	; () banked
   979  001132  5965               	subwfb	(sprintf@val+1)& (0+255),w,b
   980  001134  A0D8               	btfss	status,0,c
   981  001136  D005               	goto	l1931
   982  001138  D001               	goto	l1927
   983                           
   984                           ; BSR set to: 0
   985                           ;doprnt.c: 1307: break;
   986  00113A  D003               	goto	l1931
   987  00113C                     l1927:
   988                           
   989                           ; BSR set to: 0
   990  00113C  0100               	movlb	0	; () banked
   991  00113E  2B66               	incf	sprintf@c& (0+255),f,b
   992  001140  D7DE               	goto	l1919
   993  001142                     l1931:
   994                           
   995                           ; BSR set to: 0
   996                           ;doprnt.c: 1422: {
   997                           ;doprnt.c: 1438: if(flag & 0x03)
   998  001142  C062  F028         	movff	sprintf@flag,??_sprintf
   999  001146  0E03               	movlw	3
  1000  001148  1628               	andwf	??_sprintf,f,c
  1001  00114A  B4D8               	btfsc	status,2,c
  1002  00114C  D009               	goto	l1937
  1003                           
  1004                           ; BSR set to: 0
  1005                           ;doprnt.c: 1439: ((*sp++ = ('-')));
  1006  00114E  C022  FFD9         	movff	sprintf@sp,fsr2l
  1007  001152  C023  FFDA         	movff	sprintf@sp+1,fsr2h
  1008  001156  0E2D               	movlw	45
  1009  001158  6EDF               	movwf	indf2,c
  1010                           
  1011                           ; BSR set to: 0
  1012  00115A  4A22               	infsnz	sprintf@sp,f,c
  1013  00115C  2A23               	incf	sprintf@sp+1,f,c
  1014  00115E  D000               	goto	l1937
  1015  001160                     l1937:
  1016                           
  1017                           ; BSR set to: 0
  1018                           ;doprnt.c: 1469: }
  1019                           ;doprnt.c: 1472: prec = c;
  1020  001160  C066  F063         	movff	sprintf@c,sprintf@prec
  1021                           
  1022                           ;doprnt.c: 1474: while(prec--) {
  1023  001164  D02F               	goto	l1945
  1024  001166                     l1939:
  1025                           
  1026                           ; BSR set to: 0
  1027                           ;doprnt.c: 1478: {
  1028                           ;doprnt.c: 1489: c = (val / dpowers[prec]) % 10 + '0';
  1029  001166  0100               	movlb	0	; () banked
  1030  001168  5163               	movf	sprintf@prec& (0+255),w,b
  1031  00116A  0D02               	mullw	2
  1032  00116C  0E01               	movlw	low _dpowers
  1033  00116E  24F3               	addwf	prodl,w,c
  1034  001170  6EF6               	movwf	tblptrl,c
  1035  001172  0E10               	movlw	high _dpowers
  1036  001174  20F4               	addwfc	prodh,w,c
  1037  001176  6EF7               	movwf	tblptrh,c
  1038  001178                     	if	1	;There are 3 active tblptr bytes
  1039  001178  6AF8               	clrf	tblptru,c
  1040  00117A  0E00               	movlw	low (__mediumconst shr (0+16))
  1041  00117C  22F8               	addwfc	tblptru,f,c
  1042  00117E                     	endif
  1043  00117E  0009               	tblrd		*+
  1044  001180  CFF5 F015          	movff	tablat,___lwdiv@divisor
  1045  001184  000A               	tblrd		*-
  1046  001186  CFF5 F016          	movff	tablat,___lwdiv@divisor+1
  1047  00118A  C064  F013         	movff	sprintf@val,___lwdiv@dividend
  1048  00118E  C065  F014         	movff	sprintf@val+1,___lwdiv@dividend+1
  1049  001192  ECFD  F00B         	call	___lwdiv	;wreg free
  1050  001196  C013  F01A         	movff	?___lwdiv,___lwmod@dividend
  1051  00119A  C014  F01B         	movff	?___lwdiv+1,___lwmod@dividend+1
  1052  00119E  0E00               	movlw	0
  1053  0011A0  6E1D               	movwf	___lwmod@divisor+1,c
  1054  0011A2  0E0A               	movlw	10
  1055  0011A4  6E1C               	movwf	___lwmod@divisor,c
  1056  0011A6  EC2B  F00C         	call	___lwmod	;wreg free
  1057  0011AA  501A               	movf	?___lwmod,w,c
  1058  0011AC  0F30               	addlw	48
  1059  0011AE  0100               	movlb	0	; () banked
  1060  0011B0  6F66               	movwf	sprintf@c& (0+255),b
  1061                           
  1062                           ; BSR set to: 0
  1063                           ;doprnt.c: 1523: }
  1064                           ;doprnt.c: 1524: ((*sp++ = (c)));
  1065  0011B2  C022  FFD9         	movff	sprintf@sp,fsr2l
  1066  0011B6  C023  FFDA         	movff	sprintf@sp+1,fsr2h
  1067  0011BA  C066  FFDF         	movff	sprintf@c,indf2
  1068                           
  1069                           ; BSR set to: 0
  1070  0011BE  4A22               	infsnz	sprintf@sp,f,c
  1071  0011C0  2A23               	incf	sprintf@sp+1,f,c
  1072  0011C2  D000               	goto	l1945
  1073  0011C4                     l1945:
  1074                           
  1075                           ; BSR set to: 0
  1076  0011C4  0100               	movlb	0	; () banked
  1077  0011C6  0763               	decf	sprintf@prec& (0+255),f,b
  1078  0011C8  0100               	movlb	0	; () banked
  1079  0011CA  2963               	incf	sprintf@prec& (0+255),w,b
  1080  0011CC  B4D8               	btfsc	status,2,c
  1081  0011CE  D002               	goto	l1947
  1082  0011D0  D7CA               	goto	l1939
  1083                           
  1084                           ; BSR set to: 0
  1085  0011D2  D000               	goto	l1947
  1086  0011D4                     l1947:
  1087                           
  1088                           ; BSR set to: 0
  1089  0011D4  C024  FFF6         	movff	sprintf@f,tblptrl
  1090  0011D8  C025  FFF7         	movff	sprintf@f+1,tblptrh
  1091  0011DC  4A24               	infsnz	sprintf@f,f,c
  1092  0011DE  2A25               	incf	sprintf@f+1,f,c
  1093  0011E0                     	if	0	;tblptru may be non-zero
  1094  0011E0                     	endif
  1095  0011E0                     	if	1	;Program memory is > 0xFFFF, there are 3 active tblptr bytes
  1096  0011E0  0E00               	movlw	low (__mediumconst shr (0+16))
  1097  0011E2  6EF8               	movwf	tblptru,c
  1098  0011E4                     	endif
  1099  0011E4  0008               	tblrd		*
  1100  0011E6  CFF5 F066          	movff	tablat,sprintf@c
  1101  0011EA  0100               	movlb	0	; () banked
  1102  0011EC  5166               	movf	sprintf@c& (0+255),w,b
  1103  0011EE  B4D8               	btfsc	status,2,c
  1104  0011F0  D002               	goto	l1949
  1105  0011F2  D73D               	goto	l1895
  1106                           
  1107                           ; BSR set to: 0
  1108  0011F4  D000               	goto	l1949
  1109  0011F6                     l1949:
  1110                           
  1111                           ; BSR set to: 0
  1112                           ;doprnt.c: 1538: *sp = 0;
  1113  0011F6  C022  FFD9         	movff	sprintf@sp,fsr2l
  1114  0011FA  C023  FFDA         	movff	sprintf@sp+1,fsr2h
  1115  0011FE  0E00               	movlw	0
  1116  001200  6EDF               	movwf	indf2,c
  1117  001202  D000               	goto	l176
  1118  001204                     l176:
  1119                           
  1120                           ; BSR set to: 0
  1121  001204  0012               	return		;funcret
  1122  001206                     __end_of_sprintf:
  1123                           	opt stack 0
  1124                           tblptru	equ	0xFF8
  1125                           tblptrh	equ	0xFF7
  1126                           tblptrl	equ	0xFF6
  1127                           tablat	equ	0xFF5
  1128                           prodh	equ	0xFF4
  1129                           prodl	equ	0xFF3
  1130                           postinc0	equ	0xFEE
  1131                           wreg	equ	0xFE8
  1132                           indf2	equ	0xFDF
  1133                           postinc2	equ	0xFDE
  1134                           postdec2	equ	0xFDD
  1135                           fsr2h	equ	0xFDA
  1136                           fsr2l	equ	0xFD9
  1137                           status	equ	0xFD8
  1138                           
  1139 ;; *************** function ___lwmod *****************
  1140 ;; Defined at:
  1141 ;;		line 8 in file "C:\Program Files (x86)\Microchip\xc8\v1.34\sources\common\lwmod.c"
  1142 ;; Parameters:    Size  Location     Type
  1143 ;;  dividend        2   25[COMRAM] unsigned int 
  1144 ;;  divisor         2   27[COMRAM] unsigned int 
  1145 ;; Auto vars:     Size  Location     Type
  1146 ;;  counter         1   29[COMRAM] unsigned char 
  1147 ;; Return value:  Size  Location     Type
  1148 ;;                  2   25[COMRAM] unsigned int 
  1149 ;; Registers used:
  1150 ;;		wreg, status,2, status,0
  1151 ;; Tracked objects:
  1152 ;;		On entry : 0/0
  1153 ;;		On exit  : 0/0
  1154 ;;		Unchanged: 0/0
  1155 ;; Data sizes:     COMRAM   BANK0   BANK1   BANK2   BANK3   BANK4   BANK5   BANK6   BANK7   BANK8   BANK9  BANK10  BANK1
      +1  BANK12  BANK13  BANK14  BANK15
  1156 ;;      Params:         4       0       0       0       0       0       0       0       0       0       0       0       
      +0       0       0       0       0
  1157 ;;      Locals:         1       0       0       0       0       0       0       0       0       0       0       0       
      +0       0       0       0       0
  1158 ;;      Temps:          0       0       0       0       0       0       0       0       0       0       0       0       
      +0       0       0       0       0
  1159 ;;      Totals:         5       0       0       0       0       0       0       0       0       0       0       0       
      +0       0       0       0       0
  1160 ;;Total ram usage:        5 bytes
  1161 ;; Hardware stack levels used:    1
  1162 ;; Hardware stack levels required when called:    2
  1163 ;; This function calls:
  1164 ;;		Nothing
  1165 ;; This function is called by:
  1166 ;;		_sprintf
  1167 ;; This function uses a non-reentrant model
  1168 ;;
  1169                           
  1170                           	psect	text2
  1171  001856                     __ptext2:
  1172                           	opt stack 0
  1173  001856                     ___lwmod:
  1174                           	opt stack 27
  1175                           
  1176                           ; BSR set to: 0
  1177                           ;incstack = 0
  1178  001856  501C               	movf	___lwmod@divisor,w,c
  1179  001858  101D               	iorwf	___lwmod@divisor+1,w,c
  1180  00185A  B4D8               	btfsc	status,2,c
  1181  00185C  D01D               	goto	l848
  1182  00185E  0E01               	movlw	1
  1183  001860  6E1E               	movwf	___lwmod@counter,c
  1184  001862  D005               	goto	l1883
  1185  001864                     l1881:
  1186  001864  90D8               	bcf	status,0,c
  1187  001866  361C               	rlcf	___lwmod@divisor,f,c
  1188  001868  361D               	rlcf	___lwmod@divisor+1,f,c
  1189  00186A  2A1E               	incf	___lwmod@counter,f,c
  1190  00186C  D000               	goto	l1883
  1191  00186E                     l1883:
  1192  00186E  BE1D               	btfsc	___lwmod@divisor+1,7,c
  1193  001870  D002               	goto	l1885
  1194  001872  D7F8               	goto	l1881
  1195  001874  D000               	goto	l1885
  1196  001876                     l1885:
  1197  001876  501C               	movf	___lwmod@divisor,w,c
  1198  001878  5C1A               	subwf	___lwmod@dividend,w,c
  1199  00187A  501D               	movf	___lwmod@divisor+1,w,c
  1200  00187C  581B               	subwfb	___lwmod@dividend+1,w,c
  1201  00187E  A0D8               	btfss	status,0,c
  1202  001880  D005               	goto	l1889
  1203  001882  501C               	movf	___lwmod@divisor,w,c
  1204  001884  5E1A               	subwf	___lwmod@dividend,f,c
  1205  001886  501D               	movf	___lwmod@divisor+1,w,c
  1206  001888  5A1B               	subwfb	___lwmod@dividend+1,f,c
  1207  00188A  D000               	goto	l1889
  1208  00188C                     l1889:
  1209  00188C  90D8               	bcf	status,0,c
  1210  00188E  321D               	rrcf	___lwmod@divisor+1,f,c
  1211  001890  321C               	rrcf	___lwmod@divisor,f,c
  1212  001892  2E1E               	decfsz	___lwmod@counter,f,c
  1213  001894  D7F0               	goto	l1885
  1214  001896  D000               	goto	l848
  1215  001898                     l848:
  1216  001898  C01A  F01A         	movff	___lwmod@dividend,?___lwmod
  1217  00189C  C01B  F01B         	movff	___lwmod@dividend+1,?___lwmod+1
  1218  0018A0  0012               	return		;funcret
  1219  0018A2                     __end_of___lwmod:
  1220                           	opt stack 0
  1221                           tblptru	equ	0xFF8
  1222                           tblptrh	equ	0xFF7
  1223                           tblptrl	equ	0xFF6
  1224                           tablat	equ	0xFF5
  1225                           prodh	equ	0xFF4
  1226                           prodl	equ	0xFF3
  1227                           postinc0	equ	0xFEE
  1228                           wreg	equ	0xFE8
  1229                           indf2	equ	0xFDF
  1230                           postinc2	equ	0xFDE
  1231                           postdec2	equ	0xFDD
  1232                           fsr2h	equ	0xFDA
  1233                           fsr2l	equ	0xFD9
  1234                           status	equ	0xFD8
  1235                           
  1236 ;; *************** function ___lwdiv *****************
  1237 ;; Defined at:
  1238 ;;		line 8 in file "C:\Program Files (x86)\Microchip\xc8\v1.34\sources\common\lwdiv.c"
  1239 ;; Parameters:    Size  Location     Type
  1240 ;;  dividend        2   18[COMRAM] unsigned int 
  1241 ;;  divisor         2   20[COMRAM] unsigned int 
  1242 ;; Auto vars:     Size  Location     Type
  1243 ;;  quotient        2   23[COMRAM] unsigned int 
  1244 ;;  counter         1   22[COMRAM] unsigned char 
  1245 ;; Return value:  Size  Location     Type
  1246 ;;                  2   18[COMRAM] unsigned int 
  1247 ;; Registers used:
  1248 ;;		wreg, status,2, status,0
  1249 ;; Tracked objects:
  1250 ;;		On entry : 0/0
  1251 ;;		On exit  : 0/0
  1252 ;;		Unchanged: 0/0
  1253 ;; Data sizes:     COMRAM   BANK0   BANK1   BANK2   BANK3   BANK4   BANK5   BANK6   BANK7   BANK8   BANK9  BANK10  BANK1
      +1  BANK12  BANK13  BANK14  BANK15
  1254 ;;      Params:         4       0       0       0       0       0       0       0       0       0       0       0       
      +0       0       0       0       0
  1255 ;;      Locals:         3       0       0       0       0       0       0       0       0       0       0       0       
      +0       0       0       0       0
  1256 ;;      Temps:          0       0       0       0       0       0       0       0       0       0       0       0       
      +0       0       0       0       0
  1257 ;;      Totals:         7       0       0       0       0       0       0       0       0       0       0       0       
      +0       0       0       0       0
  1258 ;;Total ram usage:        7 bytes
  1259 ;; Hardware stack levels used:    1
  1260 ;; Hardware stack levels required when called:    2
  1261 ;; This function calls:
  1262 ;;		Nothing
  1263 ;; This function is called by:
  1264 ;;		_sprintf
  1265 ;; This function uses a non-reentrant model
  1266 ;;
  1267                           
  1268                           	psect	text3
  1269  0017FA                     __ptext3:
  1270                           	opt stack 0
  1271  0017FA                     ___lwdiv:
  1272                           	opt stack 27
  1273                           
  1274                           ;incstack = 0
  1275  0017FA  0E00               	movlw	0
  1276  0017FC  6E19               	movwf	___lwdiv@quotient+1,c
  1277  0017FE  0E00               	movlw	0
  1278  001800  6E18               	movwf	___lwdiv@quotient,c
  1279  001802  5015               	movf	___lwdiv@divisor,w,c
  1280  001804  1016               	iorwf	___lwdiv@divisor+1,w,c
  1281  001806  B4D8               	btfsc	status,2,c
  1282  001808  D021               	goto	l838
  1283  00180A  0E01               	movlw	1
  1284  00180C  6E17               	movwf	___lwdiv@counter,c
  1285  00180E  D005               	goto	l1863
  1286  001810                     l1861:
  1287  001810  90D8               	bcf	status,0,c
  1288  001812  3615               	rlcf	___lwdiv@divisor,f,c
  1289  001814  3616               	rlcf	___lwdiv@divisor+1,f,c
  1290  001816  2A17               	incf	___lwdiv@counter,f,c
  1291  001818  D000               	goto	l1863
  1292  00181A                     l1863:
  1293  00181A  BE16               	btfsc	___lwdiv@divisor+1,7,c
  1294  00181C  D002               	goto	l1865
  1295  00181E  D7F8               	goto	l1861
  1296  001820  D000               	goto	l1865
  1297  001822                     l1865:
  1298  001822  90D8               	bcf	status,0,c
  1299  001824  3618               	rlcf	___lwdiv@quotient,f,c
  1300  001826  3619               	rlcf	___lwdiv@quotient+1,f,c
  1301  001828  5015               	movf	___lwdiv@divisor,w,c
  1302  00182A  5C13               	subwf	___lwdiv@dividend,w,c
  1303  00182C  5016               	movf	___lwdiv@divisor+1,w,c
  1304  00182E  5814               	subwfb	___lwdiv@dividend+1,w,c
  1305  001830  A0D8               	btfss	status,0,c
  1306  001832  D006               	goto	l1873
  1307  001834  5015               	movf	___lwdiv@divisor,w,c
  1308  001836  5E13               	subwf	___lwdiv@dividend,f,c
  1309  001838  5016               	movf	___lwdiv@divisor+1,w,c
  1310  00183A  5A14               	subwfb	___lwdiv@dividend+1,f,c
  1311  00183C  8018               	bsf	___lwdiv@quotient,0,c
  1312  00183E  D000               	goto	l1873
  1313  001840                     l1873:
  1314  001840  90D8               	bcf	status,0,c
  1315  001842  3216               	rrcf	___lwdiv@divisor+1,f,c
  1316  001844  3215               	rrcf	___lwdiv@divisor,f,c
  1317  001846  2E17               	decfsz	___lwdiv@counter,f,c
  1318  001848  D7EC               	goto	l1865
  1319  00184A  D000               	goto	l838
  1320  00184C                     l838:
  1321  00184C  C018  F013         	movff	___lwdiv@quotient,?___lwdiv
  1322  001850  C019  F014         	movff	___lwdiv@quotient+1,?___lwdiv+1
  1323  001854  0012               	return		;funcret
  1324  001856                     __end_of___lwdiv:
  1325                           	opt stack 0
  1326                           tblptru	equ	0xFF8
  1327                           tblptrh	equ	0xFF7
  1328                           tblptrl	equ	0xFF6
  1329                           tablat	equ	0xFF5
  1330                           prodh	equ	0xFF4
  1331                           prodl	equ	0xFF3
  1332                           postinc0	equ	0xFEE
  1333                           wreg	equ	0xFE8
  1334                           indf2	equ	0xFDF
  1335                           postinc2	equ	0xFDE
  1336                           postdec2	equ	0xFDD
  1337                           fsr2h	equ	0xFDA
  1338                           fsr2l	equ	0xFD9
  1339                           status	equ	0xFD8
  1340                           
  1341 ;; *************** function _puts1USART *****************
  1342 ;; Defined at:
  1343 ;;		line 14 in file "C:\Program Files (x86)\Microchip\xc8\v1.34\sources\pic18\plib\USART\u1puts.c"
  1344 ;; Parameters:    Size  Location     Type
  1345 ;;  data            2   19[COMRAM] PTR unsigned char 
  1346 ;;		 -> buffer(8), 
  1347 ;; Auto vars:     Size  Location     Type
  1348 ;;		None
  1349 ;; Return value:  Size  Location     Type
  1350 ;;		None               void
  1351 ;; Registers used:
  1352 ;;		wreg, fsr2l, fsr2h, status,2, status,0, cstack
  1353 ;; Tracked objects:
  1354 ;;		On entry : 0/0
  1355 ;;		On exit  : 0/0
  1356 ;;		Unchanged: 0/0
  1357 ;; Data sizes:     COMRAM   BANK0   BANK1   BANK2   BANK3   BANK4   BANK5   BANK6   BANK7   BANK8   BANK9  BANK10  BANK1
      +1  BANK12  BANK13  BANK14  BANK15
  1358 ;;      Params:         2       0       0       0       0       0       0       0       0       0       0       0       
      +0       0       0       0       0
  1359 ;;      Locals:         0       0       0       0       0       0       0       0       0       0       0       0       
      +0       0       0       0       0
  1360 ;;      Temps:          0       0       0       0       0       0       0       0       0       0       0       0       
      +0       0       0       0       0
  1361 ;;      Totals:         2       0       0       0       0       0       0       0       0       0       0       0       
      +0       0       0       0       0
  1362 ;;Total ram usage:        2 bytes
  1363 ;; Hardware stack levels used:    1
  1364 ;; Hardware stack levels required when called:    3
  1365 ;; This function calls:
  1366 ;;		_Write1USART
  1367 ;; This function is called by:
  1368 ;;		_main
  1369 ;; This function uses a non-reentrant model
  1370 ;;
  1371                           
  1372                           	psect	text4
  1373  001916                     __ptext4:
  1374                           	opt stack 0
  1375  001916                     _puts1USART:
  1376                           	opt stack 27
  1377                           
  1378                           ;incstack = 0
  1379  001916  D000               	goto	l281
  1380  001918                     l281:
  1381  001918  A2AC               	btfss	4012,1,c	;volatile
  1382  00191A  D7FE               	goto	l281
  1383  00191C  C014  FFD9         	movff	puts1USART@data,fsr2l
  1384  001920  C015  FFDA         	movff	puts1USART@data+1,fsr2h
  1385  001924  50DF               	movf	indf2,w,c
  1386  001926  ECEB  F00C         	call	_Write1USART
  1387  00192A  C014  FFD9         	movff	puts1USART@data,fsr2l
  1388  00192E  C015  FFDA         	movff	puts1USART@data+1,fsr2h
  1389  001932  4A14               	infsnz	puts1USART@data,f,c
  1390  001934  2A15               	incf	puts1USART@data+1,f,c
  1391  001936  50DF               	movf	indf2,w,c
  1392  001938  A4D8               	btfss	status,2,c
  1393  00193A  D7EE               	goto	l281
  1394  00193C  0012               	return		;funcret
  1395  00193E                     __end_of_puts1USART:
  1396                           	opt stack 0
  1397                           tblptru	equ	0xFF8
  1398                           tblptrh	equ	0xFF7
  1399                           tblptrl	equ	0xFF6
  1400                           tablat	equ	0xFF5
  1401                           prodh	equ	0xFF4
  1402                           prodl	equ	0xFF3
  1403                           postinc0	equ	0xFEE
  1404                           wreg	equ	0xFE8
  1405                           indf2	equ	0xFDF
  1406                           postinc2	equ	0xFDE
  1407                           postdec2	equ	0xFDD
  1408                           fsr2h	equ	0xFDA
  1409                           fsr2l	equ	0xFD9
  1410                           status	equ	0xFD8
  1411                           
  1412 ;; *************** function ___lwtoft *****************
  1413 ;; Defined at:
  1414 ;;		line 28 in file "C:\Program Files (x86)\Microchip\xc8\v1.34\sources\common\lwtoft.c"
  1415 ;; Parameters:    Size  Location     Type
  1416 ;;  c               2   26[COMRAM] unsigned int 
  1417 ;; Auto vars:     Size  Location     Type
  1418 ;;		None
  1419 ;; Return value:  Size  Location     Type
  1420 ;;                  3   26[COMRAM] float 
  1421 ;; Registers used:
  1422 ;;		wreg, status,2, status,0, cstack
  1423 ;; Tracked objects:
  1424 ;;		On entry : 0/0
  1425 ;;		On exit  : 0/0
  1426 ;;		Unchanged: 0/0
  1427 ;; Data sizes:     COMRAM   BANK0   BANK1   BANK2   BANK3   BANK4   BANK5   BANK6   BANK7   BANK8   BANK9  BANK10  BANK1
      +1  BANK12  BANK13  BANK14  BANK15
  1428 ;;      Params:         3       0       0       0       0       0       0       0       0       0       0       0       
      +0       0       0       0       0
  1429 ;;      Locals:         0       0       0       0       0       0       0       0       0       0       0       0       
      +0       0       0       0       0
  1430 ;;      Temps:          0       0       0       0       0       0       0       0       0       0       0       0       
      +0       0       0       0       0
  1431 ;;      Totals:         3       0       0       0       0       0       0       0       0       0       0       0       
      +0       0       0       0       0
  1432 ;;Total ram usage:        3 bytes
  1433 ;; Hardware stack levels used:    1
  1434 ;; Hardware stack levels required when called:    3
  1435 ;; This function calls:
  1436 ;;		___ftpack
  1437 ;; This function is called by:
  1438 ;;		_main
  1439 ;; This function uses a non-reentrant model
  1440 ;;
  1441                           
  1442                           	psect	text5
  1443  001966                     __ptext5:
  1444                           	opt stack 0
  1445  001966                     ___lwtoft:
  1446                           	opt stack 27
  1447                           
  1448                           ;incstack = 0
  1449  001966  C01B  F013         	movff	___lwtoft@c,___ftpack@arg
  1450  00196A  C01C  F014         	movff	___lwtoft@c+1,___ftpack@arg+1
  1451  00196E  6A15               	clrf	___ftpack@arg+2,c
  1452  001970  0E8E               	movlw	142
  1453  001972  6E16               	movwf	___ftpack@exp,c
  1454  001974  0E00               	movlw	0
  1455  001976  6E17               	movwf	___ftpack@sign,c
  1456  001978  EC96  F00A         	call	___ftpack	;wreg free
  1457  00197C  C013  F01B         	movff	?___ftpack,?___lwtoft
  1458  001980  C014  F01C         	movff	?___ftpack+1,?___lwtoft+1
  1459  001984  C015  F01D         	movff	?___ftpack+2,?___lwtoft+2
  1460  001988  D000               	goto	l865
  1461  00198A                     l865:
  1462  00198A  0012               	return		;funcret
  1463  00198C                     __end_of___lwtoft:
  1464                           	opt stack 0
  1465                           tblptru	equ	0xFF8
  1466                           tblptrh	equ	0xFF7
  1467                           tblptrl	equ	0xFF6
  1468                           tablat	equ	0xFF5
  1469                           prodh	equ	0xFF4
  1470                           prodl	equ	0xFF3
  1471                           postinc0	equ	0xFEE
  1472                           wreg	equ	0xFE8
  1473                           indf2	equ	0xFDF
  1474                           postinc2	equ	0xFDE
  1475                           postdec2	equ	0xFDD
  1476                           fsr2h	equ	0xFDA
  1477                           fsr2l	equ	0xFD9
  1478                           status	equ	0xFD8
  1479                           
  1480 ;; *************** function ___fttol *****************
  1481 ;; Defined at:
  1482 ;;		line 44 in file "C:\Program Files (x86)\Microchip\xc8\v1.34\sources\common\fttol.c"
  1483 ;; Parameters:    Size  Location     Type
  1484 ;;  f1              3   18[COMRAM] float 
  1485 ;; Auto vars:     Size  Location     Type
  1486 ;;  lval            4   28[COMRAM] unsigned long 
  1487 ;;  exp1            1   32[COMRAM] unsigned char 
  1488 ;;  sign1           1   27[COMRAM] unsigned char 
  1489 ;; Return value:  Size  Location     Type
  1490 ;;                  4   18[COMRAM] long 
  1491 ;; Registers used:
  1492 ;;		wreg, status,2, status,0
  1493 ;; Tracked objects:
  1494 ;;		On entry : 0/0
  1495 ;;		On exit  : 0/0
  1496 ;;		Unchanged: 0/0
  1497 ;; Data sizes:     COMRAM   BANK0   BANK1   BANK2   BANK3   BANK4   BANK5   BANK6   BANK7   BANK8   BANK9  BANK10  BANK1
      +1  BANK12  BANK13  BANK14  BANK15
  1498 ;;      Params:         4       0       0       0       0       0       0       0       0       0       0       0       
      +0       0       0       0       0
  1499 ;;      Locals:         6       0       0       0       0       0       0       0       0       0       0       0       
      +0       0       0       0       0
  1500 ;;      Temps:          5       0       0       0       0       0       0       0       0       0       0       0       
      +0       0       0       0       0
  1501 ;;      Totals:        15       0       0       0       0       0       0       0       0       0       0       0       
      +0       0       0       0       0
  1502 ;;Total ram usage:       15 bytes
  1503 ;; Hardware stack levels used:    1
  1504 ;; Hardware stack levels required when called:    2
  1505 ;; This function calls:
  1506 ;;		Nothing
  1507 ;; This function is called by:
  1508 ;;		_main
  1509 ;; This function uses a non-reentrant model
  1510 ;;
  1511                           
  1512                           	psect	text6
  1513  001446                     __ptext6:
  1514                           	opt stack 0
  1515  001446                     ___fttol:
  1516                           	opt stack 28
  1517                           
  1518                           ;incstack = 0
  1519  001446  C015  F017         	movff	___fttol@f1+2,??___fttol
  1520  00144A  6A18               	clrf	(??___fttol+1)& (0+255),c
  1521  00144C  6A19               	clrf	(??___fttol+2)& (0+255),c
  1522  00144E  3414               	rlcf	___fttol@f1+1,w,c
  1523  001450  3617               	rlcf	??___fttol& (0+255),f,c
  1524  001452  E301               	bnc	u1101
  1525  001454  8018               	bsf	(??___fttol+1)& (0+255),0,c
  1526  001456                     u1101:
  1527  001456  5017               	movf	??___fttol,w,c
  1528  001458  6E21               	movwf	___fttol@exp1,c
  1529  00145A  5021               	movf	___fttol@exp1,w,c
  1530  00145C  A4D8               	btfss	status,2,c
  1531  00145E  D002               	goto	l1723
  1532  001460  D039               	goto	l1747
  1533  001462  D063               	goto	l736
  1534  001464                     l1723:
  1535  001464  0E17               	movlw	23
  1536  001466  6E17               	movwf	??___fttol& (0+255),c
  1537  001468  C013  F018         	movff	___fttol@f1,??___fttol+1
  1538  00146C  C014  F019         	movff	___fttol@f1+1,??___fttol+2
  1539  001470  C015  F01A         	movff	___fttol@f1+2,??___fttol+3
  1540  001474  2817               	incf	??___fttol,w,c
  1541  001476  6E1B               	movwf	(??___fttol+4)& (0+255),c
  1542  001478  D004               	goto	u1120
  1543  00147A                     u1125:
  1544  00147A  90D8               	bcf	status,0,c
  1545  00147C  321A               	rrcf	??___fttol+3,f,c
  1546  00147E  3219               	rrcf	??___fttol+2,f,c
  1547  001480  3218               	rrcf	??___fttol+1,f,c
  1548  001482                     u1120:
  1549  001482  2E1B               	decfsz	(??___fttol+4)& (0+255),f,c
  1550  001484  D7FA               	goto	u1125
  1551  001486  5018               	movf	??___fttol+1,w,c
  1552  001488  6E1C               	movwf	___fttol@sign1,c
  1553  00148A  8E14               	bsf	___fttol@f1+1,7,c
  1554  00148C  0EFF               	movlw	255
  1555  00148E  1613               	andwf	___fttol@f1,f,c
  1556  001490  0EFF               	movlw	255
  1557  001492  1614               	andwf	___fttol@f1+1,f,c
  1558  001494  0E00               	movlw	0
  1559  001496  1615               	andwf	___fttol@f1+2,f,c
  1560  001498  5013               	movf	___fttol@f1,w,c
  1561  00149A  6E1D               	movwf	___fttol@lval,c
  1562  00149C  5014               	movf	___fttol@f1+1,w,c
  1563  00149E  6E1E               	movwf	___fttol@lval+1,c
  1564  0014A0  5015               	movf	___fttol@f1+2,w,c
  1565  0014A2  6E1F               	movwf	___fttol@lval+2,c
  1566  0014A4  6A20               	clrf	___fttol@lval+3,c
  1567  0014A6  0E8E               	movlw	142
  1568  0014A8  5E21               	subwf	___fttol@exp1,f,c
  1569  0014AA  AE21               	btfss	___fttol@exp1,7,c
  1570  0014AC  D010               	goto	l1745
  1571  0014AE  5021               	movf	___fttol@exp1,w,c
  1572  0014B0  0A80               	xorlw	128
  1573  0014B2  0F8F               	addlw	143
  1574  0014B4  B0D8               	btfsc	status,0,c
  1575  0014B6  D003               	goto	l1741
  1576  0014B8  D00D               	goto	l1747
  1577  0014BA  D037               	goto	l736
  1578  0014BC  D000               	goto	l1741
  1579  0014BE                     l1741:
  1580  0014BE  90D8               	bcf	status,0,c
  1581  0014C0  3220               	rrcf	___fttol@lval+3,f,c
  1582  0014C2  321F               	rrcf	___fttol@lval+2,f,c
  1583  0014C4  321E               	rrcf	___fttol@lval+1,f,c
  1584  0014C6  321D               	rrcf	___fttol@lval,f,c
  1585  0014C8  3E21               	incfsz	___fttol@exp1,f,c
  1586  0014CA  D7F9               	goto	l1741
  1587  0014CC  D019               	goto	l1755
  1588  0014CE                     l1745:
  1589  0014CE  0E17               	movlw	23
  1590  0014D0  6421               	cpfsgt	___fttol@exp1,c
  1591  0014D2  D011               	goto	l1753
  1592  0014D4                     l1747:
  1593  0014D4  0E00               	movlw	0
  1594  0014D6  6E13               	movwf	?___fttol,c
  1595  0014D8  0E00               	movlw	0
  1596  0014DA  6E14               	movwf	?___fttol+1,c
  1597  0014DC  0E00               	movlw	0
  1598  0014DE  6E15               	movwf	?___fttol+2,c
  1599  0014E0  0E00               	movlw	0
  1600  0014E2  6E16               	movwf	?___fttol+3,c
  1601  0014E4  D022               	goto	l736
  1602  0014E6  D007               	goto	l1753
  1603  0014E8                     l1751:
  1604  0014E8  90D8               	bcf	status,0,c
  1605  0014EA  361D               	rlcf	___fttol@lval,f,c
  1606  0014EC  361E               	rlcf	___fttol@lval+1,f,c
  1607  0014EE  361F               	rlcf	___fttol@lval+2,f,c
  1608  0014F0  3620               	rlcf	___fttol@lval+3,f,c
  1609  0014F2  0621               	decf	___fttol@exp1,f,c
  1610  0014F4  D000               	goto	l1753
  1611  0014F6                     l1753:
  1612  0014F6  5021               	movf	___fttol@exp1,w,c
  1613  0014F8  B4D8               	btfsc	status,2,c
  1614  0014FA  D002               	goto	l1755
  1615  0014FC  D7F5               	goto	l1751
  1616  0014FE  D000               	goto	l1755
  1617  001500                     l1755:
  1618  001500  501C               	movf	___fttol@sign1,w,c
  1619  001502  B4D8               	btfsc	status,2,c
  1620  001504  D009               	goto	l1759
  1621  001506  1E20               	comf	___fttol@lval+3,f,c
  1622  001508  1E1F               	comf	___fttol@lval+2,f,c
  1623  00150A  1E1E               	comf	___fttol@lval+1,f,c
  1624  00150C  6C1D               	negf	___fttol@lval,c
  1625  00150E  0E00               	movlw	0
  1626  001510  221E               	addwfc	___fttol@lval+1,f,c
  1627  001512  221F               	addwfc	___fttol@lval+2,f,c
  1628  001514  2220               	addwfc	___fttol@lval+3,f,c
  1629  001516  D000               	goto	l1759
  1630  001518                     l1759:
  1631  001518  C01D  F013         	movff	___fttol@lval,?___fttol
  1632  00151C  C01E  F014         	movff	___fttol@lval+1,?___fttol+1
  1633  001520  C01F  F015         	movff	___fttol@lval+2,?___fttol+2
  1634  001524  C020  F016         	movff	___fttol@lval+3,?___fttol+3
  1635  001528  D000               	goto	l736
  1636  00152A                     l736:
  1637  00152A  0012               	return		;funcret
  1638  00152C                     __end_of___fttol:
  1639                           	opt stack 0
  1640                           tblptru	equ	0xFF8
  1641                           tblptrh	equ	0xFF7
  1642                           tblptrl	equ	0xFF6
  1643                           tablat	equ	0xFF5
  1644                           prodh	equ	0xFF4
  1645                           prodl	equ	0xFF3
  1646                           postinc0	equ	0xFEE
  1647                           wreg	equ	0xFE8
  1648                           indf2	equ	0xFDF
  1649                           postinc2	equ	0xFDE
  1650                           postdec2	equ	0xFDD
  1651                           fsr2h	equ	0xFDA
  1652                           fsr2l	equ	0xFD9
  1653                           status	equ	0xFD8
  1654                           
  1655 ;; *************** function ___ftmul *****************
  1656 ;; Defined at:
  1657 ;;		line 62 in file "C:\Program Files (x86)\Microchip\xc8\v1.34\sources\common\ftmul.c"
  1658 ;; Parameters:    Size  Location     Type
  1659 ;;  f1              3   29[COMRAM] float 
  1660 ;;  f2              3   32[COMRAM] float 
  1661 ;; Auto vars:     Size  Location     Type
  1662 ;;  f3_as_produc    3   39[COMRAM] unsigned um
  1663 ;;  sign            1   43[COMRAM] unsigned char 
  1664 ;;  cntr            1   42[COMRAM] unsigned char 
  1665 ;;  exp             1   38[COMRAM] unsigned char 
  1666 ;; Return value:  Size  Location     Type
  1667 ;;                  3   29[COMRAM] float 
  1668 ;; Registers used:
  1669 ;;		wreg, status,2, status,0, cstack
  1670 ;; Tracked objects:
  1671 ;;		On entry : 0/0
  1672 ;;		On exit  : 0/0
  1673 ;;		Unchanged: 0/0
  1674 ;; Data sizes:     COMRAM   BANK0   BANK1   BANK2   BANK3   BANK4   BANK5   BANK6   BANK7   BANK8   BANK9  BANK10  BANK1
      +1  BANK12  BANK13  BANK14  BANK15
  1675 ;;      Params:         6       0       0       0       0       0       0       0       0       0       0       0       
      +0       0       0       0       0
  1676 ;;      Locals:         6       0       0       0       0       0       0       0       0       0       0       0       
      +0       0       0       0       0
  1677 ;;      Temps:          3       0       0       0       0       0       0       0       0       0       0       0       
      +0       0       0       0       0
  1678 ;;      Totals:        15       0       0       0       0       0       0       0       0       0       0       0       
      +0       0       0       0       0
  1679 ;;Total ram usage:       15 bytes
  1680 ;; Hardware stack levels used:    1
  1681 ;; Hardware stack levels required when called:    3
  1682 ;; This function calls:
  1683 ;;		___ftpack
  1684 ;; This function is called by:
  1685 ;;		_main
  1686 ;; This function uses a non-reentrant model
  1687 ;;
  1688                           
  1689                           	psect	text7
  1690  00134E                     __ptext7:
  1691                           	opt stack 0
  1692  00134E                     ___ftmul:
  1693                           	opt stack 27
  1694                           
  1695                           ;incstack = 0
  1696  00134E  C020  F024         	movff	___ftmul@f1+2,??___ftmul
  1697  001352  6A25               	clrf	(??___ftmul+1)& (0+255),c
  1698  001354  6A26               	clrf	(??___ftmul+2)& (0+255),c
  1699  001356  341F               	rlcf	___ftmul@f1+1,w,c
  1700  001358  3624               	rlcf	??___ftmul& (0+255),f,c
  1701  00135A  E301               	bnc	u1041
  1702  00135C  8025               	bsf	(??___ftmul+1)& (0+255),0,c
  1703  00135E                     u1041:
  1704  00135E  5024               	movf	??___ftmul,w,c
  1705  001360  6E27               	movwf	___ftmul@exp,c
  1706  001362  5027               	movf	___ftmul@exp,w,c
  1707  001364  A4D8               	btfss	status,2,c
  1708  001366  D002               	goto	l1675
  1709  001368  D00E               	goto	l1677
  1710  00136A  D06C               	goto	l715
  1711  00136C                     l1675:
  1712  00136C  C023  F024         	movff	___ftmul@f2+2,??___ftmul
  1713  001370  6A25               	clrf	(??___ftmul+1)& (0+255),c
  1714  001372  6A26               	clrf	(??___ftmul+2)& (0+255),c
  1715  001374  3422               	rlcf	___ftmul@f2+1,w,c
  1716  001376  3624               	rlcf	??___ftmul& (0+255),f,c
  1717  001378  E301               	bnc	u1061
  1718  00137A  8025               	bsf	(??___ftmul+1)& (0+255),0,c
  1719  00137C                     u1061:
  1720  00137C  5024               	movf	??___ftmul,w,c
  1721  00137E  6E2C               	movwf	___ftmul@sign,c
  1722  001380  502C               	movf	___ftmul@sign,w,c
  1723  001382  A4D8               	btfss	status,2,c
  1724  001384  D007               	goto	l1681
  1725  001386                     l1677:
  1726  001386  0E00               	movlw	0
  1727  001388  6E1E               	movwf	?___ftmul,c
  1728  00138A  0E00               	movlw	0
  1729  00138C  6E1F               	movwf	?___ftmul+1,c
  1730  00138E  0E00               	movlw	0
  1731  001390  6E20               	movwf	?___ftmul+2,c
  1732  001392  D058               	goto	l715
  1733  001394                     l1681:
  1734  001394  502C               	movf	___ftmul@sign,w,c
  1735  001396  0F7B               	addlw	123
  1736  001398  2627               	addwf	___ftmul@exp,f,c
  1737  00139A  C020  F02C         	movff	___ftmul@f1+2,___ftmul@sign
  1738  00139E  5023               	movf	___ftmul@f2+2,w,c
  1739  0013A0  1A2C               	xorwf	___ftmul@sign,f,c
  1740  0013A2  0E80               	movlw	128
  1741  0013A4  162C               	andwf	___ftmul@sign,f,c
  1742  0013A6  8E1F               	bsf	___ftmul@f1+1,7,c
  1743  0013A8  8E22               	bsf	___ftmul@f2+1,7,c
  1744  0013AA  0EFF               	movlw	255
  1745  0013AC  1621               	andwf	___ftmul@f2,f,c
  1746  0013AE  0EFF               	movlw	255
  1747  0013B0  1622               	andwf	___ftmul@f2+1,f,c
  1748  0013B2  0E00               	movlw	0
  1749  0013B4  1623               	andwf	___ftmul@f2+2,f,c
  1750  0013B6  0E00               	movlw	0
  1751  0013B8  6E28               	movwf	___ftmul@f3_as_product,c
  1752  0013BA  0E00               	movlw	0
  1753  0013BC  6E29               	movwf	___ftmul@f3_as_product+1,c
  1754  0013BE  0E00               	movlw	0
  1755  0013C0  6E2A               	movwf	___ftmul@f3_as_product+2,c
  1756  0013C2  0E07               	movlw	7
  1757  0013C4  6E2B               	movwf	___ftmul@cntr,c
  1758  0013C6  D000               	goto	l1695
  1759  0013C8                     l1695:
  1760  0013C8  A01E               	btfss	___ftmul@f1,0,c
  1761  0013CA  D007               	goto	l1699
  1762  0013CC  5021               	movf	___ftmul@f2,w,c
  1763  0013CE  2628               	addwf	___ftmul@f3_as_product,f,c
  1764  0013D0  5022               	movf	___ftmul@f2+1,w,c
  1765  0013D2  2229               	addwfc	___ftmul@f3_as_product+1,f,c
  1766  0013D4  5023               	movf	___ftmul@f2+2,w,c
  1767  0013D6  222A               	addwfc	___ftmul@f3_as_product+2,f,c
  1768  0013D8  D000               	goto	l1699
  1769  0013DA                     l1699:
  1770  0013DA  90D8               	bcf	status,0,c
  1771  0013DC  3220               	rrcf	___ftmul@f1+2,f,c
  1772  0013DE  321F               	rrcf	___ftmul@f1+1,f,c
  1773  0013E0  321E               	rrcf	___ftmul@f1,f,c
  1774  0013E2  90D8               	bcf	status,0,c
  1775  0013E4  3621               	rlcf	___ftmul@f2,f,c
  1776  0013E6  3622               	rlcf	___ftmul@f2+1,f,c
  1777  0013E8  3623               	rlcf	___ftmul@f2+2,f,c
  1778  0013EA  2E2B               	decfsz	___ftmul@cntr,f,c
  1779  0013EC  D7ED               	goto	l1695
  1780  0013EE  D000               	goto	l1703
  1781  0013F0                     l1703:
  1782  0013F0  0E09               	movlw	9
  1783  0013F2  6E2B               	movwf	___ftmul@cntr,c
  1784  0013F4  D000               	goto	l1705
  1785  0013F6                     l1705:
  1786  0013F6  A01E               	btfss	___ftmul@f1,0,c
  1787  0013F8  D007               	goto	l1709
  1788  0013FA  5021               	movf	___ftmul@f2,w,c
  1789  0013FC  2628               	addwf	___ftmul@f3_as_product,f,c
  1790  0013FE  5022               	movf	___ftmul@f2+1,w,c
  1791  001400  2229               	addwfc	___ftmul@f3_as_product+1,f,c
  1792  001402  5023               	movf	___ftmul@f2+2,w,c
  1793  001404  222A               	addwfc	___ftmul@f3_as_product+2,f,c
  1794  001406  D000               	goto	l1709
  1795  001408                     l1709:
  1796  001408  90D8               	bcf	status,0,c
  1797  00140A  3220               	rrcf	___ftmul@f1+2,f,c
  1798  00140C  321F               	rrcf	___ftmul@f1+1,f,c
  1799  00140E  321E               	rrcf	___ftmul@f1,f,c
  1800  001410  90D8               	bcf	status,0,c
  1801  001412  322A               	rrcf	___ftmul@f3_as_product+2,f,c
  1802  001414  3229               	rrcf	___ftmul@f3_as_product+1,f,c
  1803  001416  3228               	rrcf	___ftmul@f3_as_product,f,c
  1804  001418  2E2B               	decfsz	___ftmul@cntr,f,c
  1805  00141A  D7ED               	goto	l1705
  1806  00141C  D000               	goto	l1713
  1807  00141E                     l1713:
  1808  00141E  C028  F013         	movff	___ftmul@f3_as_product,___ftpack@arg
  1809  001422  C029  F014         	movff	___ftmul@f3_as_product+1,___ftpack@arg+1
  1810  001426  C02A  F015         	movff	___ftmul@f3_as_product+2,___ftpack@arg+2
  1811  00142A  C027  F016         	movff	___ftmul@exp,___ftpack@exp
  1812  00142E  C02C  F017         	movff	___ftmul@sign,___ftpack@sign
  1813  001432  EC96  F00A         	call	___ftpack	;wreg free
  1814  001436  C013  F01E         	movff	?___ftpack,?___ftmul
  1815  00143A  C014  F01F         	movff	?___ftpack+1,?___ftmul+1
  1816  00143E  C015  F020         	movff	?___ftpack+2,?___ftmul+2
  1817  001442  D000               	goto	l715
  1818  001444                     l715:
  1819  001444  0012               	return		;funcret
  1820  001446                     __end_of___ftmul:
  1821                           	opt stack 0
  1822                           tblptru	equ	0xFF8
  1823                           tblptrh	equ	0xFF7
  1824                           tblptrl	equ	0xFF6
  1825                           tablat	equ	0xFF5
  1826                           prodh	equ	0xFF4
  1827                           prodl	equ	0xFF3
  1828                           postinc0	equ	0xFEE
  1829                           wreg	equ	0xFE8
  1830                           indf2	equ	0xFDF
  1831                           postinc2	equ	0xFDE
  1832                           postdec2	equ	0xFDD
  1833                           fsr2h	equ	0xFDA
  1834                           fsr2l	equ	0xFD9
  1835                           status	equ	0xFD8
  1836                           
  1837 ;; *************** function ___ftpack *****************
  1838 ;; Defined at:
  1839 ;;		line 62 in file "C:\Program Files (x86)\Microchip\xc8\v1.34\sources\common\float.c"
  1840 ;; Parameters:    Size  Location     Type
  1841 ;;  arg             3   18[COMRAM] unsigned um
  1842 ;;  exp             1   21[COMRAM] unsigned char 
  1843 ;;  sign            1   22[COMRAM] unsigned char 
  1844 ;; Auto vars:     Size  Location     Type
  1845 ;;		None
  1846 ;; Return value:  Size  Location     Type
  1847 ;;                  3   18[COMRAM] float 
  1848 ;; Registers used:
  1849 ;;		wreg, status,2, status,0
  1850 ;; Tracked objects:
  1851 ;;		On entry : 0/0
  1852 ;;		On exit  : 0/0
  1853 ;;		Unchanged: 0/0
  1854 ;; Data sizes:     COMRAM   BANK0   BANK1   BANK2   BANK3   BANK4   BANK5   BANK6   BANK7   BANK8   BANK9  BANK10  BANK1
      +1  BANK12  BANK13  BANK14  BANK15
  1855 ;;      Params:         5       0       0       0       0       0       0       0       0       0       0       0       
      +0       0       0       0       0
  1856 ;;      Locals:         0       0       0       0       0       0       0       0       0       0       0       0       
      +0       0       0       0       0
  1857 ;;      Temps:          3       0       0       0       0       0       0       0       0       0       0       0       
      +0       0       0       0       0
  1858 ;;      Totals:         8       0       0       0       0       0       0       0       0       0       0       0       
      +0       0       0       0       0
  1859 ;;Total ram usage:        8 bytes
  1860 ;; Hardware stack levels used:    1
  1861 ;; Hardware stack levels required when called:    2
  1862 ;; This function calls:
  1863 ;;		Nothing
  1864 ;; This function is called by:
  1865 ;;		___ftmul
  1866 ;;		___lwtoft
  1867 ;; This function uses a non-reentrant model
  1868 ;;
  1869                           
  1870                           	psect	text8
  1871  00152C                     __ptext8:
  1872                           	opt stack 0
  1873  00152C                     ___ftpack:
  1874                           	opt stack 27
  1875                           
  1876                           ;incstack = 0
  1877  00152C  5016               	movf	___ftpack@exp,w,c
  1878  00152E  B4D8               	btfsc	status,2,c
  1879  001530  D005               	goto	l1493
  1880  001532  5013               	movf	___ftpack@arg,w,c
  1881  001534  1014               	iorwf	___ftpack@arg+1,w,c
  1882  001536  1015               	iorwf	___ftpack@arg+2,w,c
  1883  001538  A4D8               	btfss	status,2,c
  1884  00153A  D00E               	goto	l1499
  1885  00153C                     l1493:
  1886  00153C  0E00               	movlw	0
  1887  00153E  6E13               	movwf	?___ftpack,c
  1888  001540  0E00               	movlw	0
  1889  001542  6E14               	movwf	?___ftpack+1,c
  1890  001544  0E00               	movlw	0
  1891  001546  6E15               	movwf	?___ftpack+2,c
  1892  001548  D053               	goto	l628
  1893  00154A  D006               	goto	l1499
  1894  00154C                     l1497:
  1895  00154C  2A16               	incf	___ftpack@exp,f,c
  1896  00154E  90D8               	bcf	status,0,c
  1897  001550  3215               	rrcf	___ftpack@arg+2,f,c
  1898  001552  3214               	rrcf	___ftpack@arg+1,f,c
  1899  001554  3213               	rrcf	___ftpack@arg,f,c
  1900  001556  D000               	goto	l1499
  1901  001558                     l1499:
  1902  001558  0E00               	movlw	0
  1903  00155A  1413               	andwf	___ftpack@arg,w,c
  1904  00155C  6E18               	movwf	??___ftpack& (0+255),c
  1905  00155E  0E00               	movlw	0
  1906  001560  1414               	andwf	___ftpack@arg+1,w,c
  1907  001562  6E19               	movwf	(??___ftpack+1)& (0+255),c
  1908  001564  0EFE               	movlw	254
  1909  001566  1415               	andwf	___ftpack@arg+2,w,c
  1910  001568  6E1A               	movwf	(??___ftpack+2)& (0+255),c
  1911  00156A  5018               	movf	??___ftpack,w,c
  1912  00156C  1019               	iorwf	??___ftpack+1,w,c
  1913  00156E  101A               	iorwf	??___ftpack+2,w,c
  1914  001570  B4D8               	btfsc	status,2,c
  1915  001572  D00E               	goto	l1505
  1916  001574  D7EB               	goto	l1497
  1917  001576  D00C               	goto	l1505
  1918  001578                     l1501:
  1919  001578  2A16               	incf	___ftpack@exp,f,c
  1920  00157A  0E01               	movlw	1
  1921  00157C  2613               	addwf	___ftpack@arg,f,c
  1922  00157E  0E00               	movlw	0
  1923  001580  2214               	addwfc	___ftpack@arg+1,f,c
  1924  001582  0E00               	movlw	0
  1925  001584  2215               	addwfc	___ftpack@arg+2,f,c
  1926  001586  90D8               	bcf	status,0,c
  1927  001588  3215               	rrcf	___ftpack@arg+2,f,c
  1928  00158A  3214               	rrcf	___ftpack@arg+1,f,c
  1929  00158C  3213               	rrcf	___ftpack@arg,f,c
  1930  00158E  D000               	goto	l1505
  1931  001590                     l1505:
  1932  001590  0E00               	movlw	0
  1933  001592  1413               	andwf	___ftpack@arg,w,c
  1934  001594  6E18               	movwf	??___ftpack& (0+255),c
  1935  001596  0E00               	movlw	0
  1936  001598  1414               	andwf	___ftpack@arg+1,w,c
  1937  00159A  6E19               	movwf	(??___ftpack+1)& (0+255),c
  1938  00159C  0EFF               	movlw	255
  1939  00159E  1415               	andwf	___ftpack@arg+2,w,c
  1940  0015A0  6E1A               	movwf	(??___ftpack+2)& (0+255),c
  1941  0015A2  5018               	movf	??___ftpack,w,c
  1942  0015A4  1019               	iorwf	??___ftpack+1,w,c
  1943  0015A6  101A               	iorwf	??___ftpack+2,w,c
  1944  0015A8  B4D8               	btfsc	status,2,c
  1945  0015AA  D008               	goto	l1509
  1946  0015AC  D7E5               	goto	l1501
  1947  0015AE  D006               	goto	l1509
  1948  0015B0                     l1507:
  1949  0015B0  0616               	decf	___ftpack@exp,f,c
  1950  0015B2  90D8               	bcf	status,0,c
  1951  0015B4  3613               	rlcf	___ftpack@arg,f,c
  1952  0015B6  3614               	rlcf	___ftpack@arg+1,f,c
  1953  0015B8  3615               	rlcf	___ftpack@arg+2,f,c
  1954  0015BA  D000               	goto	l1509
  1955  0015BC                     l1509:
  1956  0015BC  BE14               	btfsc	___ftpack@arg+1,7,c
  1957  0015BE  D004               	goto	l639
  1958  0015C0  0E02               	movlw	2
  1959  0015C2  6016               	cpfslt	___ftpack@exp,c
  1960  0015C4  D7F5               	goto	l1507
  1961  0015C6  D000               	goto	l639
  1962  0015C8                     l639:
  1963  0015C8  B016               	btfsc	___ftpack@exp,0,c
  1964  0015CA  D002               	goto	l1515
  1965  0015CC  9E14               	bcf	___ftpack@arg+1,7,c
  1966  0015CE  D000               	goto	l1515
  1967  0015D0                     l1515:
  1968  0015D0  90D8               	bcf	status,0,c
  1969  0015D2  3216               	rrcf	___ftpack@exp,f,c
  1970  0015D4  5016               	movf	___ftpack@exp,w,c
  1971  0015D6  1215               	iorwf	___ftpack@arg+2,f,c
  1972  0015D8  5017               	movf	___ftpack@sign,w,c
  1973  0015DA  B4D8               	btfsc	status,2,c
  1974  0015DC  D002               	goto	l1521
  1975  0015DE  8E15               	bsf	___ftpack@arg+2,7,c
  1976  0015E0  D000               	goto	l1521
  1977  0015E2                     l1521:
  1978  0015E2  C013  F013         	movff	___ftpack@arg,?___ftpack
  1979  0015E6  C014  F014         	movff	___ftpack@arg+1,?___ftpack+1
  1980  0015EA  C015  F015         	movff	___ftpack@arg+2,?___ftpack+2
  1981  0015EE  D000               	goto	l628
  1982  0015F0                     l628:
  1983  0015F0  0012               	return		;funcret
  1984  0015F2                     __end_of___ftpack:
  1985                           	opt stack 0
  1986                           tblptru	equ	0xFF8
  1987                           tblptrh	equ	0xFF7
  1988                           tblptrl	equ	0xFF6
  1989                           tablat	equ	0xFF5
  1990                           prodh	equ	0xFF4
  1991                           prodl	equ	0xFF3
  1992                           postinc0	equ	0xFEE
  1993                           wreg	equ	0xFE8
  1994                           indf2	equ	0xFDF
  1995                           postinc2	equ	0xFDE
  1996                           postdec2	equ	0xFDD
  1997                           fsr2h	equ	0xFDA
  1998                           fsr2l	equ	0xFD9
  1999                           status	equ	0xFD8
  2000                           
  2001 ;; *************** function _SelectLED *****************
  2002 ;; Defined at:
  2003 ;;		line 125 in file "TechDemo3_Test_Routine.c"
  2004 ;; Parameters:    Size  Location     Type
  2005 ;;  sel             1    wreg     unsigned char 
  2006 ;; Auto vars:     Size  Location     Type
  2007 ;;  sel             1   18[COMRAM] unsigned char 
  2008 ;; Return value:  Size  Location     Type
  2009 ;;		None               void
  2010 ;; Registers used:
  2011 ;;		wreg, status,2, status,0
  2012 ;; Tracked objects:
  2013 ;;		On entry : 0/0
  2014 ;;		On exit  : 0/0
  2015 ;;		Unchanged: 0/0
  2016 ;; Data sizes:     COMRAM   BANK0   BANK1   BANK2   BANK3   BANK4   BANK5   BANK6   BANK7   BANK8   BANK9  BANK10  BANK1
      +1  BANK12  BANK13  BANK14  BANK15
  2017 ;;      Params:         0       0       0       0       0       0       0       0       0       0       0       0       
      +0       0       0       0       0
  2018 ;;      Locals:         1       0       0       0       0       0       0       0       0       0       0       0       
      +0       0       0       0       0
  2019 ;;      Temps:          0       0       0       0       0       0       0       0       0       0       0       0       
      +0       0       0       0       0
  2020 ;;      Totals:         1       0       0       0       0       0       0       0       0       0       0       0       
      +0       0       0       0       0
  2021 ;;Total ram usage:        1 bytes
  2022 ;; Hardware stack levels used:    1
  2023 ;; Hardware stack levels required when called:    2
  2024 ;; This function calls:
  2025 ;;		Nothing
  2026 ;; This function is called by:
  2027 ;;		_main
  2028 ;; This function uses a non-reentrant model
  2029 ;;
  2030                           
  2031                           	psect	text9
  2032  0018A2                     __ptext9:
  2033                           	opt stack 0
  2034  0018A2                     _SelectLED:
  2035                           	opt stack 28
  2036                           
  2037                           ;incstack = 0
  2038                           ;SelectLED@sel stored from wreg
  2039  0018A2  6E13               	movwf	SelectLED@sel,c
  2040                           
  2041                           ;TechDemo3_Test_Routine.c: 126: switch (sel) {
  2042  0018A4  D00B               	goto	l1141
  2043  0018A6                     l1129:
  2044                           
  2045                           ;TechDemo3_Test_Routine.c: 128: LATJ = 0x01;
  2046  0018A6  0E01               	movlw	1
  2047  0018A8  D007               	goto	L4
  2048  0018AA                     l1131:
  2049                           
  2050                           ;TechDemo3_Test_Routine.c: 131: LATJ = 0x02;
  2051  0018AA  0E02               	movlw	2
  2052  0018AC  D005               	goto	L4
  2053  0018AE                     l1133:
  2054                           
  2055                           ;TechDemo3_Test_Routine.c: 134: LATJ = 0x04;
  2056  0018AE  0E04               	movlw	4
  2057  0018B0  D003               	goto	L4
  2058  0018B2                     l1135:
  2059                           
  2060                           ;TechDemo3_Test_Routine.c: 137: LATJ = 0x08;
  2061  0018B2  0E08               	movlw	8
  2062  0018B4  D001               	goto	L4
  2063  0018B6                     l1137:
  2064                           
  2065                           ;TechDemo3_Test_Routine.c: 140: LATJ = 0x10;
  2066  0018B6  0E10               	movlw	16
  2067  0018B8                     L4:
  2068  0018B8  6E91               	movwf	3985,c	;volatile
  2069                           
  2070                           ;TechDemo3_Test_Routine.c: 142: }
  2071                           
  2072                           ;TechDemo3_Test_Routine.c: 141: break;
  2073  0018BA  D011               	goto	l125
  2074  0018BC                     l1141:
  2075  0018BC  5013               	movf	SelectLED@sel,w,c
  2076                           
  2077                           ; Switch size 1, requested type "space"
  2078                           ; Number of cases is 5, Range of values is 0 to 4
  2079                           ; switch strategies available:
  2080                           ; Name         Instructions Cycles
  2081                           ; simple_byte           16     9 (average)
  2082                           ;	Chosen strategy is simple_byte
  2083  0018BE  0A00               	xorlw	0	; case 0
  2084  0018C0  B4D8               	btfsc	status,2,c
  2085  0018C2  D7F1               	goto	l1129
  2086  0018C4  0A01               	xorlw	1	; case 1
  2087  0018C6  B4D8               	btfsc	status,2,c
  2088  0018C8  D7F0               	goto	l1131
  2089  0018CA  0A03               	xorlw	3	; case 2
  2090  0018CC  B4D8               	btfsc	status,2,c
  2091  0018CE  D7EF               	goto	l1133
  2092  0018D0  0A01               	xorlw	1	; case 3
  2093  0018D2  B4D8               	btfsc	status,2,c
  2094  0018D4  D7EE               	goto	l1135
  2095  0018D6  0A07               	xorlw	7	; case 4
  2096  0018D8  B4D8               	btfsc	status,2,c
  2097  0018DA  D7ED               	goto	l1137
  2098  0018DC  D000               	goto	l125
  2099  0018DE                     l125:
  2100  0018DE  0012               	return		;funcret
  2101  0018E0                     __end_of_SelectLED:
  2102                           	opt stack 0
  2103                           tblptru	equ	0xFF8
  2104                           tblptrh	equ	0xFF7
  2105                           tblptrl	equ	0xFF6
  2106                           tablat	equ	0xFF5
  2107                           prodh	equ	0xFF4
  2108                           prodl	equ	0xFF3
  2109                           postinc0	equ	0xFEE
  2110                           wreg	equ	0xFE8
  2111                           indf2	equ	0xFDF
  2112                           postinc2	equ	0xFDE
  2113                           postdec2	equ	0xFDD
  2114                           fsr2h	equ	0xFDA
  2115                           fsr2l	equ	0xFD9
  2116                           status	equ	0xFD8
  2117                           
  2118 ;; *************** function _GetDistance *****************
  2119 ;; Defined at:
  2120 ;;		line 145 in file "TechDemo3_Test_Routine.c"
  2121 ;; Parameters:    Size  Location     Type
  2122 ;;		None
  2123 ;; Auto vars:     Size  Location     Type
  2124 ;;		None
  2125 ;; Return value:  Size  Location     Type
  2126 ;;		None               void
  2127 ;; Registers used:
  2128 ;;		wreg, status,2, cstack
  2129 ;; Tracked objects:
  2130 ;;		On entry : 0/0
  2131 ;;		On exit  : 0/0
  2132 ;;		Unchanged: 0/0
  2133 ;; Data sizes:     COMRAM   BANK0   BANK1   BANK2   BANK3   BANK4   BANK5   BANK6   BANK7   BANK8   BANK9  BANK10  BANK1
      +1  BANK12  BANK13  BANK14  BANK15
  2134 ;;      Params:         0       0       0       0       0       0       0       0       0       0       0       0       
      +0       0       0       0       0
  2135 ;;      Locals:         0       0       0       0       0       0       0       0       0       0       0       0       
      +0       0       0       0       0
  2136 ;;      Temps:          0       0       0       0       0       0       0       0       0       0       0       0       
      +0       0       0       0       0
  2137 ;;      Totals:         0       0       0       0       0       0       0       0       0       0       0       0       
      +0       0       0       0       0
  2138 ;;Total ram usage:        0 bytes
  2139 ;; Hardware stack levels used:    1
  2140 ;; Hardware stack levels required when called:    3
  2141 ;; This function calls:
  2142 ;;		_Delay1TCYx
  2143 ;; This function is called by:
  2144 ;;		_main
  2145 ;; This function uses a non-reentrant model
  2146 ;;
  2147                           
  2148                           	psect	text10
  2149  001A14                     __ptext10:
  2150                           	opt stack 0
  2151  001A14                     _GetDistance:
  2152                           	opt stack 27
  2153                           
  2154                           ;TechDemo3_Test_Routine.c: 146: LATEbits.LATE5 = 1;
  2155                           
  2156                           ;incstack = 0
  2157  001A14  8A8D               	bsf	3981,5,c	;volatile
  2158                           
  2159                           ;TechDemo3_Test_Routine.c: 147: Delay1TCYx(25);
  2160  001A16  0E19               	movlw	25
  2161  001A18  EC5F  F00D         	call	_Delay1TCYx
  2162                           
  2163                           ;TechDemo3_Test_Routine.c: 148: LATEbits.LATE5 = 0;
  2164  001A1C  9A8D               	bcf	3981,5,c	;volatile
  2165                           
  2166                           ;TechDemo3_Test_Routine.c: 149: INTCONbits.RBIE = 1;
  2167  001A1E  86F2               	bsf	intcon,3,c	;volatile
  2168                           
  2169                           ;TechDemo3_Test_Routine.c: 150: echo_ready = 0;
  2170  001A20  0E00               	movlw	0
  2171  001A22  6E41               	movwf	_echo_ready,c	;volatile
  2172  001A24  0012               	return		;funcret
  2173  001A26                     __end_of_GetDistance:
  2174                           	opt stack 0
  2175                           tblptru	equ	0xFF8
  2176                           tblptrh	equ	0xFF7
  2177                           tblptrl	equ	0xFF6
  2178                           tablat	equ	0xFF5
  2179                           prodh	equ	0xFF4
  2180                           prodl	equ	0xFF3
  2181                           intcon	equ	0xFF2
  2182                           postinc0	equ	0xFEE
  2183                           wreg	equ	0xFE8
  2184                           indf2	equ	0xFDF
  2185                           postinc2	equ	0xFDE
  2186                           postdec2	equ	0xFDD
  2187                           fsr2h	equ	0xFDA
  2188                           fsr2l	equ	0xFD9
  2189                           status	equ	0xFD8
  2190                           
  2191 ;; *************** function _Delay1TCYx *****************
  2192 ;; Defined at:
  2193 ;;		line 4 in file "C:\Program Files (x86)\Microchip\xc8\v1.34\sources\pic18\d1tcyx.c"
  2194 ;; Parameters:    Size  Location     Type
  2195 ;;  unit            1    wreg     unsigned char 
  2196 ;; Auto vars:     Size  Location     Type
  2197 ;;  unit            1   18[COMRAM] unsigned char 
  2198 ;; Return value:  Size  Location     Type
  2199 ;;		None               void
  2200 ;; Registers used:
  2201 ;;		wreg
  2202 ;; Tracked objects:
  2203 ;;		On entry : 0/0
  2204 ;;		On exit  : 0/0
  2205 ;;		Unchanged: 0/0
  2206 ;; Data sizes:     COMRAM   BANK0   BANK1   BANK2   BANK3   BANK4   BANK5   BANK6   BANK7   BANK8   BANK9  BANK10  BANK1
      +1  BANK12  BANK13  BANK14  BANK15
  2207 ;;      Params:         0       0       0       0       0       0       0       0       0       0       0       0       
      +0       0       0       0       0
  2208 ;;      Locals:         1       0       0       0       0       0       0       0       0       0       0       0       
      +0       0       0       0       0
  2209 ;;      Temps:          0       0       0       0       0       0       0       0       0       0       0       0       
      +0       0       0       0       0
  2210 ;;      Totals:         1       0       0       0       0       0       0       0       0       0       0       0       
      +0       0       0       0       0
  2211 ;;Total ram usage:        1 bytes
  2212 ;; Hardware stack levels used:    1
  2213 ;; Hardware stack levels required when called:    2
  2214 ;; This function calls:
  2215 ;;		Nothing
  2216 ;; This function is called by:
  2217 ;;		_GetDistance
  2218 ;; This function uses a non-reentrant model
  2219 ;;
  2220                           
  2221                           	psect	text11
  2222  001ABE                     __ptext11:
  2223                           	opt stack 0
  2224  001ABE                     _Delay1TCYx:
  2225                           	opt stack 27
  2226                           
  2227                           ;incstack = 0
  2228                           ;Delay1TCYx@unit stored from wreg
  2229  001ABE  6E13               	movwf	Delay1TCYx@unit,c
  2230  001AC0                     l536:
  2231  001AC0  F000               	nop	
  2232  001AC2  2E13               	decfsz	Delay1TCYx@unit,f,c
  2233  001AC4  D7FD               	goto	l536
  2234  001AC6  D000               	goto	l538
  2235  001AC8                     l538:
  2236  001AC8  0012               	return		;funcret
  2237  001ACA                     __end_of_Delay1TCYx:
  2238                           	opt stack 0
  2239                           tblptru	equ	0xFF8
  2240                           tblptrh	equ	0xFF7
  2241                           tblptrl	equ	0xFF6
  2242                           tablat	equ	0xFF5
  2243                           prodh	equ	0xFF4
  2244                           prodl	equ	0xFF3
  2245                           intcon	equ	0xFF2
  2246                           postinc0	equ	0xFEE
  2247                           wreg	equ	0xFE8
  2248                           indf2	equ	0xFDF
  2249                           postinc2	equ	0xFDE
  2250                           postdec2	equ	0xFDD
  2251                           fsr2h	equ	0xFDA
  2252                           fsr2l	equ	0xFD9
  2253                           status	equ	0xFD8
  2254                           
  2255 ;; *************** function _GetADCReading *****************
  2256 ;; Defined at:
  2257 ;;		line 95 in file "TechDemo3_Test_Routine.c"
  2258 ;; Parameters:    Size  Location     Type
  2259 ;;  channel         1    wreg     unsigned char 
  2260 ;; Auto vars:     Size  Location     Type
  2261 ;;  channel         1   24[COMRAM] unsigned char 
  2262 ;; Return value:  Size  Location     Type
  2263 ;;                  2   22[COMRAM] unsigned int 
  2264 ;; Registers used:
  2265 ;;		wreg, status,2, status,0, cstack
  2266 ;; Tracked objects:
  2267 ;;		On entry : 0/0
  2268 ;;		On exit  : 0/0
  2269 ;;		Unchanged: 0/0
  2270 ;; Data sizes:     COMRAM   BANK0   BANK1   BANK2   BANK3   BANK4   BANK5   BANK6   BANK7   BANK8   BANK9  BANK10  BANK1
      +1  BANK12  BANK13  BANK14  BANK15
  2271 ;;      Params:         2       0       0       0       0       0       0       0       0       0       0       0       
      +0       0       0       0       0
  2272 ;;      Locals:         1       0       0       0       0       0       0       0       0       0       0       0       
      +0       0       0       0       0
  2273 ;;      Temps:          0       0       0       0       0       0       0       0       0       0       0       0       
      +0       0       0       0       0
  2274 ;;      Totals:         3       0       0       0       0       0       0       0       0       0       0       0       
      +0       0       0       0       0
  2275 ;;Total ram usage:        3 bytes
  2276 ;; Hardware stack levels used:    1
  2277 ;; Hardware stack levels required when called:    3
  2278 ;; This function calls:
  2279 ;;		_BusyADC
  2280 ;;		_ConvertADC
  2281 ;;		_ReadADC
  2282 ;;		_SetChanADC
  2283 ;; This function is called by:
  2284 ;;		_main
  2285 ;; This function uses a non-reentrant model
  2286 ;;
  2287                           
  2288                           	psect	text12
  2289  00169E                     __ptext12:
  2290                           	opt stack 0
  2291  00169E                     _GetADCReading:
  2292                           	opt stack 27
  2293                           
  2294                           ;incstack = 0
  2295                           ;GetADCReading@channel stored from wreg
  2296  00169E  6E19               	movwf	GetADCReading@channel,c
  2297                           
  2298                           ;TechDemo3_Test_Routine.c: 96: switch (channel) {
  2299  0016A0  D01E               	goto	l1595
  2300  0016A2                     l1577:
  2301                           
  2302                           ;TechDemo3_Test_Routine.c: 98: SetChanADC(0b10000111);
  2303  0016A2  0E87               	movlw	135
  2304  0016A4  ECE0  F00C         	call	_SetChanADC
  2305                           
  2306                           ;TechDemo3_Test_Routine.c: 99: break;
  2307  0016A8  D02E               	goto	l1597
  2308  0016AA                     l1579:
  2309                           
  2310                           ;TechDemo3_Test_Routine.c: 101: SetChanADC(0b10001111);
  2311  0016AA  0E8F               	movlw	143
  2312  0016AC  ECE0  F00C         	call	_SetChanADC
  2313                           
  2314                           ;TechDemo3_Test_Routine.c: 102: break;
  2315  0016B0  D02A               	goto	l1597
  2316  0016B2                     l1581:
  2317                           
  2318                           ;TechDemo3_Test_Routine.c: 104: SetChanADC(0b10010111);
  2319  0016B2  0E97               	movlw	151
  2320  0016B4  ECE0  F00C         	call	_SetChanADC
  2321                           
  2322                           ;TechDemo3_Test_Routine.c: 105: break;
  2323  0016B8  D026               	goto	l1597
  2324  0016BA                     l1583:
  2325                           
  2326                           ;TechDemo3_Test_Routine.c: 107: SetChanADC(0b10011111);
  2327  0016BA  0E9F               	movlw	159
  2328  0016BC  ECE0  F00C         	call	_SetChanADC
  2329                           
  2330                           ;TechDemo3_Test_Routine.c: 108: break;
  2331  0016C0  D022               	goto	l1597
  2332  0016C2                     l1585:
  2333                           
  2334                           ;TechDemo3_Test_Routine.c: 110: SetChanADC(0b10100111);
  2335  0016C2  0EA7               	movlw	167
  2336  0016C4  ECE0  F00C         	call	_SetChanADC
  2337                           
  2338                           ;TechDemo3_Test_Routine.c: 111: break;
  2339  0016C8  D01E               	goto	l1597
  2340  0016CA                     l1587:
  2341                           
  2342                           ;TechDemo3_Test_Routine.c: 113: SetChanADC(0b10101111);
  2343  0016CA  0EAF               	movlw	175
  2344  0016CC  ECE0  F00C         	call	_SetChanADC
  2345                           
  2346                           ;TechDemo3_Test_Routine.c: 114: break;
  2347  0016D0  D01A               	goto	l1597
  2348  0016D2                     l1589:
  2349                           
  2350                           ;TechDemo3_Test_Routine.c: 116: return 0;
  2351  0016D2  0E00               	movlw	0
  2352  0016D4  6E18               	movwf	?_GetADCReading+1,c
  2353  0016D6  0E00               	movlw	0
  2354  0016D8  6E17               	movwf	?_GetADCReading,c
  2355  0016DA  D026               	goto	l112
  2356                           
  2357                           ;TechDemo3_Test_Routine.c: 117: }
  2358  0016DC  D014               	goto	l1597
  2359  0016DE                     l1595:
  2360  0016DE  5019               	movf	GetADCReading@channel,w,c
  2361                           
  2362                           ; Switch size 1, requested type "space"
  2363                           ; Number of cases is 6, Range of values is 0 to 5
  2364                           ; switch strategies available:
  2365                           ; Name         Instructions Cycles
  2366                           ; simple_byte           19    10 (average)
  2367                           ;	Chosen strategy is simple_byte
  2368  0016E0  0A00               	xorlw	0	; case 0
  2369  0016E2  B4D8               	btfsc	status,2,c
  2370  0016E4  D7DE               	goto	l1577
  2371  0016E6  0A01               	xorlw	1	; case 1
  2372  0016E8  B4D8               	btfsc	status,2,c
  2373  0016EA  D7DF               	goto	l1579
  2374  0016EC  0A03               	xorlw	3	; case 2
  2375  0016EE  B4D8               	btfsc	status,2,c
  2376  0016F0  D7E0               	goto	l1581
  2377  0016F2  0A01               	xorlw	1	; case 3
  2378  0016F4  B4D8               	btfsc	status,2,c
  2379  0016F6  D7E1               	goto	l1583
  2380  0016F8  0A07               	xorlw	7	; case 4
  2381  0016FA  B4D8               	btfsc	status,2,c
  2382  0016FC  D7E2               	goto	l1585
  2383  0016FE  0A01               	xorlw	1	; case 5
  2384  001700  B4D8               	btfsc	status,2,c
  2385  001702  D7E3               	goto	l1587
  2386  001704  D7E6               	goto	l1589
  2387  001706                     l1597:
  2388                           
  2389                           ;TechDemo3_Test_Routine.c: 119: ConvertADC();
  2390  001706  EC65  F00D         	call	_ConvertADC	;wreg free
  2391                           
  2392                           ;TechDemo3_Test_Routine.c: 121: while (BusyADC());
  2393  00170A  D000               	goto	l1599
  2394  00170C                     l1599:
  2395  00170C  EC58  F00D         	call	_BusyADC	;wreg free
  2396  001710  0900               	iorlw	0
  2397  001712  A4D8               	btfss	status,2,c
  2398  001714  D7FB               	goto	l1599
  2399                           
  2400                           ;TechDemo3_Test_Routine.c: 122: return ReadADC() & 0x03FF;
  2401  001716  EC40  F00D         	call	_ReadADC	;wreg free
  2402  00171A  0EFF               	movlw	255
  2403  00171C  1413               	andwf	?_ReadADC,w,c
  2404  00171E  6E17               	movwf	?_GetADCReading,c
  2405  001720  0E03               	movlw	3
  2406  001722  1414               	andwf	?_ReadADC+1,w,c
  2407  001724  6E18               	movwf	?_GetADCReading+1,c
  2408  001726  D000               	goto	l112
  2409  001728                     l112:
  2410  001728  0012               	return		;funcret
  2411  00172A                     __end_of_GetADCReading:
  2412                           	opt stack 0
  2413                           tblptru	equ	0xFF8
  2414                           tblptrh	equ	0xFF7
  2415                           tblptrl	equ	0xFF6
  2416                           tablat	equ	0xFF5
  2417                           prodh	equ	0xFF4
  2418                           prodl	equ	0xFF3
  2419                           intcon	equ	0xFF2
  2420                           postinc0	equ	0xFEE
  2421                           wreg	equ	0xFE8
  2422                           indf2	equ	0xFDF
  2423                           postinc2	equ	0xFDE
  2424                           postdec2	equ	0xFDD
  2425                           fsr2h	equ	0xFDA
  2426                           fsr2l	equ	0xFD9
  2427                           status	equ	0xFD8
  2428                           
  2429 ;; *************** function _SetChanADC *****************
  2430 ;; Defined at:
  2431 ;;		line 30 in file "C:\Program Files (x86)\Microchip\xc8\v1.34\sources\pic18\plib\ADC\adcsetch.c"
  2432 ;; Parameters:    Size  Location     Type
  2433 ;;  channel         1    wreg     unsigned char 
  2434 ;; Auto vars:     Size  Location     Type
  2435 ;;  channel         1   19[COMRAM] unsigned char 
  2436 ;; Return value:  Size  Location     Type
  2437 ;;		None               void
  2438 ;; Registers used:
  2439 ;;		wreg, status,2, status,0
  2440 ;; Tracked objects:
  2441 ;;		On entry : 0/0
  2442 ;;		On exit  : 0/0
  2443 ;;		Unchanged: 0/0
  2444 ;; Data sizes:     COMRAM   BANK0   BANK1   BANK2   BANK3   BANK4   BANK5   BANK6   BANK7   BANK8   BANK9  BANK10  BANK1
      +1  BANK12  BANK13  BANK14  BANK15
  2445 ;;      Params:         0       0       0       0       0       0       0       0       0       0       0       0       
      +0       0       0       0       0
  2446 ;;      Locals:         1       0       0       0       0       0       0       0       0       0       0       0       
      +0       0       0       0       0
  2447 ;;      Temps:          1       0       0       0       0       0       0       0       0       0       0       0       
      +0       0       0       0       0
  2448 ;;      Totals:         2       0       0       0       0       0       0       0       0       0       0       0       
      +0       0       0       0       0
  2449 ;;Total ram usage:        2 bytes
  2450 ;; Hardware stack levels used:    1
  2451 ;; Hardware stack levels required when called:    2
  2452 ;; This function calls:
  2453 ;;		Nothing
  2454 ;; This function is called by:
  2455 ;;		_GetADCReading
  2456 ;; This function uses a non-reentrant model
  2457 ;;
  2458                           
  2459                           	psect	text13
  2460  0019C0                     __ptext13:
  2461                           	opt stack 0
  2462  0019C0                     _SetChanADC:
  2463                           	opt stack 27
  2464                           
  2465                           ;incstack = 0
  2466                           ;SetChanADC@channel stored from wreg
  2467  0019C0  6E14               	movwf	SetChanADC@channel,c
  2468  0019C2  CFC2 F013          	movff	4034,??_SetChanADC	;volatile
  2469  0019C6  0EC3               	movlw	195
  2470  0019C8  1613               	andwf	??_SetChanADC,f,c
  2471  0019CA  90D8               	bcf	status,0,c
  2472  0019CC  3014               	rrcf	SetChanADC@channel,w,c
  2473  0019CE  0B3C               	andlw	60
  2474  0019D0  1013               	iorwf	??_SetChanADC,w,c
  2475  0019D2  6EC2               	movwf	4034,c	;volatile
  2476  0019D4  0012               	return		;funcret
  2477  0019D6                     __end_of_SetChanADC:
  2478                           	opt stack 0
  2479                           tblptru	equ	0xFF8
  2480                           tblptrh	equ	0xFF7
  2481                           tblptrl	equ	0xFF6
  2482                           tablat	equ	0xFF5
  2483                           prodh	equ	0xFF4
  2484                           prodl	equ	0xFF3
  2485                           intcon	equ	0xFF2
  2486                           postinc0	equ	0xFEE
  2487                           wreg	equ	0xFE8
  2488                           indf2	equ	0xFDF
  2489                           postinc2	equ	0xFDE
  2490                           postdec2	equ	0xFDD
  2491                           fsr2h	equ	0xFDA
  2492                           fsr2l	equ	0xFD9
  2493                           status	equ	0xFD8
  2494                           
  2495 ;; *************** function _ReadADC *****************
  2496 ;; Defined at:
  2497 ;;		line 24 in file "C:\Program Files (x86)\Microchip\xc8\v1.34\sources\pic18\plib\ADC\adcread.c"
  2498 ;; Parameters:    Size  Location     Type
  2499 ;;		None
  2500 ;; Auto vars:     Size  Location     Type
  2501 ;;		None
  2502 ;; Return value:  Size  Location     Type
  2503 ;;                  2   18[COMRAM] int 
  2504 ;; Registers used:
  2505 ;;		wreg, status,2
  2506 ;; Tracked objects:
  2507 ;;		On entry : 0/0
  2508 ;;		On exit  : 0/0
  2509 ;;		Unchanged: 0/0
  2510 ;; Data sizes:     COMRAM   BANK0   BANK1   BANK2   BANK3   BANK4   BANK5   BANK6   BANK7   BANK8   BANK9  BANK10  BANK1
      +1  BANK12  BANK13  BANK14  BANK15
  2511 ;;      Params:         2       0       0       0       0       0       0       0       0       0       0       0       
      +0       0       0       0       0
  2512 ;;      Locals:         0       0       0       0       0       0       0       0       0       0       0       0       
      +0       0       0       0       0
  2513 ;;      Temps:          2       0       0       0       0       0       0       0       0       0       0       0       
      +0       0       0       0       0
  2514 ;;      Totals:         4       0       0       0       0       0       0       0       0       0       0       0       
      +0       0       0       0       0
  2515 ;;Total ram usage:        4 bytes
  2516 ;; Hardware stack levels used:    1
  2517 ;; Hardware stack levels required when called:    2
  2518 ;; This function calls:
  2519 ;;		Nothing
  2520 ;; This function is called by:
  2521 ;;		_GetADCReading
  2522 ;; This function uses a non-reentrant model
  2523 ;;
  2524                           
  2525                           	psect	text14
  2526  001A80                     __ptext14:
  2527                           	opt stack 0
  2528  001A80                     _ReadADC:
  2529                           	opt stack 27
  2530                           
  2531                           ;incstack = 0
  2532  001A80  50C4               	movf	4036,w,c	;volatile
  2533  001A82  6E15               	movwf	??_ReadADC& (0+255),c
  2534  001A84  50C3               	movf	4035,w,c	;volatile
  2535  001A86  6E13               	movwf	?_ReadADC,c
  2536  001A88  C015  F014         	movff	??_ReadADC,?_ReadADC+1
  2537  001A8C  D000               	goto	l211
  2538  001A8E                     l211:
  2539  001A8E  0012               	return		;funcret
  2540  001A90                     __end_of_ReadADC:
  2541                           	opt stack 0
  2542                           tblptru	equ	0xFF8
  2543                           tblptrh	equ	0xFF7
  2544                           tblptrl	equ	0xFF6
  2545                           tablat	equ	0xFF5
  2546                           prodh	equ	0xFF4
  2547                           prodl	equ	0xFF3
  2548                           intcon	equ	0xFF2
  2549                           postinc0	equ	0xFEE
  2550                           wreg	equ	0xFE8
  2551                           indf2	equ	0xFDF
  2552                           postinc2	equ	0xFDE
  2553                           postdec2	equ	0xFDD
  2554                           fsr2h	equ	0xFDA
  2555                           fsr2l	equ	0xFD9
  2556                           status	equ	0xFD8
  2557                           
  2558 ;; *************** function _ConvertADC *****************
  2559 ;; Defined at:
  2560 ;;		line 22 in file "C:\Program Files (x86)\Microchip\xc8\v1.34\sources\pic18\plib\ADC\adcconv.c"
  2561 ;; Parameters:    Size  Location     Type
  2562 ;;		None
  2563 ;; Auto vars:     Size  Location     Type
  2564 ;;		None
  2565 ;; Return value:  Size  Location     Type
  2566 ;;		None               void
  2567 ;; Registers used:
  2568 ;;		None
  2569 ;; Tracked objects:
  2570 ;;		On entry : 0/0
  2571 ;;		On exit  : 0/0
  2572 ;;		Unchanged: 0/0
  2573 ;; Data sizes:     COMRAM   BANK0   BANK1   BANK2   BANK3   BANK4   BANK5   BANK6   BANK7   BANK8   BANK9  BANK10  BANK1
      +1  BANK12  BANK13  BANK14  BANK15
  2574 ;;      Params:         0       0       0       0       0       0       0       0       0       0       0       0       
      +0       0       0       0       0
  2575 ;;      Locals:         0       0       0       0       0       0       0       0       0       0       0       0       
      +0       0       0       0       0
  2576 ;;      Temps:          0       0       0       0       0       0       0       0       0       0       0       0       
      +0       0       0       0       0
  2577 ;;      Totals:         0       0       0       0       0       0       0       0       0       0       0       0       
      +0       0       0       0       0
  2578 ;;Total ram usage:        0 bytes
  2579 ;; Hardware stack levels used:    1
  2580 ;; Hardware stack levels required when called:    2
  2581 ;; This function calls:
  2582 ;;		Nothing
  2583 ;; This function is called by:
  2584 ;;		_GetADCReading
  2585 ;; This function uses a non-reentrant model
  2586 ;;
  2587                           
  2588                           	psect	text15
  2589  001ACA                     __ptext15:
  2590                           	opt stack 0
  2591  001ACA                     _ConvertADC:
  2592                           	opt stack 27
  2593                           
  2594                           ;incstack = 0
  2595  001ACA  82C2               	bsf	4034,1,c	;volatile
  2596  001ACC  0012               	return		;funcret
  2597  001ACE                     __end_of_ConvertADC:
  2598                           	opt stack 0
  2599                           tblptru	equ	0xFF8
  2600                           tblptrh	equ	0xFF7
  2601                           tblptrl	equ	0xFF6
  2602                           tablat	equ	0xFF5
  2603                           prodh	equ	0xFF4
  2604                           prodl	equ	0xFF3
  2605                           intcon	equ	0xFF2
  2606                           postinc0	equ	0xFEE
  2607                           wreg	equ	0xFE8
  2608                           indf2	equ	0xFDF
  2609                           postinc2	equ	0xFDE
  2610                           postdec2	equ	0xFDD
  2611                           fsr2h	equ	0xFDA
  2612                           fsr2l	equ	0xFD9
  2613                           status	equ	0xFD8
  2614                           
  2615 ;; *************** function _BusyADC *****************
  2616 ;; Defined at:
  2617 ;;		line 26 in file "C:\Program Files (x86)\Microchip\xc8\v1.34\sources\pic18\plib\ADC\adcbusy.c"
  2618 ;; Parameters:    Size  Location     Type
  2619 ;;		None
  2620 ;; Auto vars:     Size  Location     Type
  2621 ;;		None
  2622 ;; Return value:  Size  Location     Type
  2623 ;;                  1    wreg      unsigned char 
  2624 ;; Registers used:
  2625 ;;		wreg
  2626 ;; Tracked objects:
  2627 ;;		On entry : 0/0
  2628 ;;		On exit  : 0/0
  2629 ;;		Unchanged: 0/0
  2630 ;; Data sizes:     COMRAM   BANK0   BANK1   BANK2   BANK3   BANK4   BANK5   BANK6   BANK7   BANK8   BANK9  BANK10  BANK1
      +1  BANK12  BANK13  BANK14  BANK15
  2631 ;;      Params:         0       0       0       0       0       0       0       0       0       0       0       0       
      +0       0       0       0       0
  2632 ;;      Locals:         0       0       0       0       0       0       0       0       0       0       0       0       
      +0       0       0       0       0
  2633 ;;      Temps:          0       0       0       0       0       0       0       0       0       0       0       0       
      +0       0       0       0       0
  2634 ;;      Totals:         0       0       0       0       0       0       0       0       0       0       0       0       
      +0       0       0       0       0
  2635 ;;Total ram usage:        0 bytes
  2636 ;; Hardware stack levels used:    1
  2637 ;; Hardware stack levels required when called:    2
  2638 ;; This function calls:
  2639 ;;		Nothing
  2640 ;; This function is called by:
  2641 ;;		_GetADCReading
  2642 ;; This function uses a non-reentrant model
  2643 ;;
  2644                           
  2645                           	psect	text16
  2646  001AB0                     __ptext16:
  2647                           	opt stack 0
  2648  001AB0                     _BusyADC:
  2649                           	opt stack 27
  2650                           
  2651                           ;incstack = 0
  2652  001AB0  A2C2               	btfss	4034,1,c	;volatile
  2653  001AB2  D002               	goto	u160
  2654  001AB4  0E01               	movlw	1
  2655  001AB6  D002               	goto	l181
  2656  001AB8                     u160:
  2657  001AB8  0E00               	movlw	0
  2658  001ABA  D000               	goto	l181
  2659  001ABC                     l181:
  2660  001ABC  0012               	return		;funcret
  2661  001ABE                     __end_of_BusyADC:
  2662                           	opt stack 0
  2663                           tblptru	equ	0xFF8
  2664                           tblptrh	equ	0xFF7
  2665                           tblptrl	equ	0xFF6
  2666                           tablat	equ	0xFF5
  2667                           prodh	equ	0xFF4
  2668                           prodl	equ	0xFF3
  2669                           intcon	equ	0xFF2
  2670                           postinc0	equ	0xFEE
  2671                           wreg	equ	0xFE8
  2672                           indf2	equ	0xFDF
  2673                           postinc2	equ	0xFDE
  2674                           postdec2	equ	0xFDD
  2675                           fsr2h	equ	0xFDA
  2676                           fsr2l	equ	0xFD9
  2677                           status	equ	0xFD8
  2678                           
  2679 ;; *************** function _Delay1KTCYx *****************
  2680 ;; Defined at:
  2681 ;;		line 8 in file "C:\Program Files (x86)\Microchip\xc8\v1.34\sources\pic18\d1ktcyx.c"
  2682 ;; Parameters:    Size  Location     Type
  2683 ;;  unit            1    wreg     unsigned char 
  2684 ;; Auto vars:     Size  Location     Type
  2685 ;;  unit            1   18[COMRAM] unsigned char 
  2686 ;; Return value:  Size  Location     Type
  2687 ;;		None               void
  2688 ;; Registers used:
  2689 ;;		wreg
  2690 ;; Tracked objects:
  2691 ;;		On entry : 0/0
  2692 ;;		On exit  : 0/0
  2693 ;;		Unchanged: 0/0
  2694 ;; Data sizes:     COMRAM   BANK0   BANK1   BANK2   BANK3   BANK4   BANK5   BANK6   BANK7   BANK8   BANK9  BANK10  BANK1
      +1  BANK12  BANK13  BANK14  BANK15
  2695 ;;      Params:         0       0       0       0       0       0       0       0       0       0       0       0       
      +0       0       0       0       0
  2696 ;;      Locals:         1       0       0       0       0       0       0       0       0       0       0       0       
      +0       0       0       0       0
  2697 ;;      Temps:          0       0       0       0       0       0       0       0       0       0       0       0       
      +0       0       0       0       0
  2698 ;;      Totals:         1       0       0       0       0       0       0       0       0       0       0       0       
      +0       0       0       0       0
  2699 ;;Total ram usage:        1 bytes
  2700 ;; Hardware stack levels used:    1
  2701 ;; Hardware stack levels required when called:    2
  2702 ;; This function calls:
  2703 ;;		Nothing
  2704 ;; This function is called by:
  2705 ;;		_main
  2706 ;; This function uses a non-reentrant model
  2707 ;;
  2708                           
  2709                           	psect	text17
  2710  001A26                     __ptext17:
  2711                           	opt stack 0
  2712  001A26                     _Delay1KTCYx:
  2713                           	opt stack 28
  2714                           
  2715                           ;incstack = 0
  2716                           ;Delay1KTCYx@unit stored from wreg
  2717  001A26  6E13               	movwf	Delay1KTCYx@unit,c
  2718  001A28  0EFA               	movlw	250
  2719  001A2A                     u1487:
  2720  001A2A  F000               	nop	
  2721  001A2C  2EE8               	decfsz	wreg,f,c
  2722  001A2E  D7FD               	goto	u1487
  2723  001A30  2E13               	decfsz	Delay1KTCYx@unit,f,c
  2724  001A32  D7FA               	goto	l1163
  2725  001A34  D000               	goto	l531
  2726  001A36                     l531:
  2727  001A36  0012               	return		;funcret
  2728  001A38                     __end_of_Delay1KTCYx:
  2729                           	opt stack 0
  2730                           tblptru	equ	0xFF8
  2731                           tblptrh	equ	0xFF7
  2732                           tblptrl	equ	0xFF6
  2733                           tablat	equ	0xFF5
  2734                           prodh	equ	0xFF4
  2735                           prodl	equ	0xFF3
  2736                           intcon	equ	0xFF2
  2737                           postinc0	equ	0xFEE
  2738                           wreg	equ	0xFE8
  2739                           indf2	equ	0xFDF
  2740                           postinc2	equ	0xFDE
  2741                           postdec2	equ	0xFDD
  2742                           fsr2h	equ	0xFDA
  2743                           fsr2l	equ	0xFD9
  2744                           status	equ	0xFD8
  2745                           
  2746 ;; *************** function _ConfigUSART *****************
  2747 ;; Defined at:
  2748 ;;		line 82 in file "TechDemo3_Test_Routine.c"
  2749 ;; Parameters:    Size  Location     Type
  2750 ;;		None
  2751 ;; Auto vars:     Size  Location     Type
  2752 ;;		None
  2753 ;; Return value:  Size  Location     Type
  2754 ;;		None               void
  2755 ;; Registers used:
  2756 ;;		wreg, status,2, status,0, tblptrl, tblptrh, tblptru, cstack
  2757 ;; Tracked objects:
  2758 ;;		On entry : 0/0
  2759 ;;		On exit  : 0/0
  2760 ;;		Unchanged: 0/0
  2761 ;; Data sizes:     COMRAM   BANK0   BANK1   BANK2   BANK3   BANK4   BANK5   BANK6   BANK7   BANK8   BANK9  BANK10  BANK1
      +1  BANK12  BANK13  BANK14  BANK15
  2762 ;;      Params:         0       0       0       0       0       0       0       0       0       0       0       0       
      +0       0       0       0       0
  2763 ;;      Locals:         0       0       0       0       0       0       0       0       0       0       0       0       
      +0       0       0       0       0
  2764 ;;      Temps:          0       0       0       0       0       0       0       0       0       0       0       0       
      +0       0       0       0       0
  2765 ;;      Totals:         0       0       0       0       0       0       0       0       0       0       0       0       
      +0       0       0       0       0
  2766 ;;Total ram usage:        0 bytes
  2767 ;; Hardware stack levels used:    1
  2768 ;; Hardware stack levels required when called:    4
  2769 ;; This function calls:
  2770 ;;		_Open1USART
  2771 ;;		_putrs1USART
  2772 ;; This function is called by:
  2773 ;;		_main
  2774 ;; This function uses a non-reentrant model
  2775 ;;
  2776                           
  2777                           	psect	text18
  2778  00198C                     __ptext18:
  2779                           	opt stack 0
  2780  00198C                     _ConfigUSART:
  2781                           	opt stack 26
  2782                           
  2783                           ;TechDemo3_Test_Routine.c: 83: Open1USART(0b01111111
  2784                           ;TechDemo3_Test_Routine.c: 84: & 0b10111111
  2785                           ;TechDemo3_Test_Routine.c: 85: & 0b11111110
  2786                           ;TechDemo3_Test_Routine.c: 86: & 0b11111101
  2787                           ;TechDemo3_Test_Routine.c: 87: & 0b11111111
  2788                           ;TechDemo3_Test_Routine.c: 88: & 0b11111111,
  2789                           ;TechDemo3_Test_Routine.c: 89: 64);
  2790                           
  2791                           ;incstack = 0
  2792  00198C  0E00               	movlw	0
  2793  00198E  6E14               	movwf	Open1USART@spbrg+1,c
  2794  001990  0E40               	movlw	64
  2795  001992  6E13               	movwf	Open1USART@spbrg,c
  2796  001994  0E3C               	movlw	60
  2797  001996  EC95  F00B         	call	_Open1USART
  2798                           
  2799                           ;TechDemo3_Test_Routine.c: 91: putrs1USART("Tech Demo 3 Test Program\r\n");
  2800  00199A  0E27               	movlw	low STR_1
  2801  00199C  6E14               	movwf	putrs1USART@data,c
  2802  00199E  0E10               	movlw	high STR_1
  2803  0019A0  6E15               	movwf	putrs1USART@data+1,c
  2804  0019A2  EC70  F00C         	call	_putrs1USART	;wreg free
  2805  0019A6  0012               	return		;funcret
  2806  0019A8                     __end_of_ConfigUSART:
  2807                           	opt stack 0
  2808                           tblptru	equ	0xFF8
  2809                           tblptrh	equ	0xFF7
  2810                           tblptrl	equ	0xFF6
  2811                           tablat	equ	0xFF5
  2812                           prodh	equ	0xFF4
  2813                           prodl	equ	0xFF3
  2814                           intcon	equ	0xFF2
  2815                           postinc0	equ	0xFEE
  2816                           wreg	equ	0xFE8
  2817                           indf2	equ	0xFDF
  2818                           postinc2	equ	0xFDE
  2819                           postdec2	equ	0xFDD
  2820                           fsr2h	equ	0xFDA
  2821                           fsr2l	equ	0xFD9
  2822                           status	equ	0xFD8
  2823                           
  2824 ;; *************** function _putrs1USART *****************
  2825 ;; Defined at:
  2826 ;;		line 15 in file "C:\Program Files (x86)\Microchip\xc8\v1.34\sources\pic18\plib\USART\u1putrs.c"
  2827 ;; Parameters:    Size  Location     Type
  2828 ;;  data            2   19[COMRAM] PTR const unsigned char 
  2829 ;;		 -> STR_3(28), STR_2(21), STR_1(27), 
  2830 ;; Auto vars:     Size  Location     Type
  2831 ;;		None
  2832 ;; Return value:  Size  Location     Type
  2833 ;;		None               void
  2834 ;; Registers used:
  2835 ;;		wreg, status,2, status,0, tblptrl, tblptrh, tblptru, cstack
  2836 ;; Tracked objects:
  2837 ;;		On entry : 0/0
  2838 ;;		On exit  : 0/0
  2839 ;;		Unchanged: 0/0
  2840 ;; Data sizes:     COMRAM   BANK0   BANK1   BANK2   BANK3   BANK4   BANK5   BANK6   BANK7   BANK8   BANK9  BANK10  BANK1
      +1  BANK12  BANK13  BANK14  BANK15
  2841 ;;      Params:         2       0       0       0       0       0       0       0       0       0       0       0       
      +0       0       0       0       0
  2842 ;;      Locals:         0       0       0       0       0       0       0       0       0       0       0       0       
      +0       0       0       0       0
  2843 ;;      Temps:          0       0       0       0       0       0       0       0       0       0       0       0       
      +0       0       0       0       0
  2844 ;;      Totals:         2       0       0       0       0       0       0       0       0       0       0       0       
      +0       0       0       0       0
  2845 ;;Total ram usage:        2 bytes
  2846 ;; Hardware stack levels used:    1
  2847 ;; Hardware stack levels required when called:    3
  2848 ;; This function calls:
  2849 ;;		_Write1USART
  2850 ;; This function is called by:
  2851 ;;		_ConfigUSART
  2852 ;;		_main
  2853 ;; This function uses a non-reentrant model
  2854 ;;
  2855                           
  2856                           	psect	text19
  2857  0018E0                     __ptext19:
  2858                           	opt stack 0
  2859  0018E0                     _putrs1USART:
  2860                           	opt stack 27
  2861                           
  2862                           ;incstack = 0
  2863  0018E0  D000               	goto	l269
  2864  0018E2                     l269:
  2865  0018E2  A2AC               	btfss	4012,1,c	;volatile
  2866  0018E4  D7FE               	goto	l269
  2867  0018E6  C014  FFF6         	movff	putrs1USART@data,tblptrl
  2868  0018EA  C015  FFF7         	movff	putrs1USART@data+1,tblptrh
  2869  0018EE                     	if	0	;tblptru may be non-zero
  2870  0018EE                     	endif
  2871  0018EE                     	if	1	;Program memory is > 0xFFFF, there are 3 active tblptr bytes
  2872  0018EE  0E00               	movlw	low (__mediumconst shr (0+16))
  2873  0018F0  6EF8               	movwf	tblptru,c
  2874  0018F2                     	endif
  2875  0018F2  0008               	tblrd		*
  2876  0018F4  50F5               	movf	tablat,w,c
  2877  0018F6  ECEB  F00C         	call	_Write1USART
  2878  0018FA  C014  FFF6         	movff	putrs1USART@data,tblptrl
  2879  0018FE  C015  FFF7         	movff	putrs1USART@data+1,tblptrh
  2880  001902  4A14               	infsnz	putrs1USART@data,f,c
  2881  001904  2A15               	incf	putrs1USART@data+1,f,c
  2882  001906                     	if	0	;tblptru may be non-zero
  2883  001906                     	endif
  2884  001906                     	if	1	;Program memory is > 0xFFFF, there are 3 active tblptr bytes
  2885  001906  0E00               	movlw	low (__mediumconst shr (0+16))
  2886  001908  6EF8               	movwf	tblptru,c
  2887  00190A                     	endif
  2888  00190A  0008               	tblrd		*
  2889  00190C  50F5               	movf	tablat,w,c
  2890  00190E  0900               	iorlw	0
  2891  001910  A4D8               	btfss	status,2,c
  2892  001912  D7E7               	goto	l269
  2893  001914  0012               	return		;funcret
  2894  001916                     __end_of_putrs1USART:
  2895                           	opt stack 0
  2896                           tblptru	equ	0xFF8
  2897                           tblptrh	equ	0xFF7
  2898                           tblptrl	equ	0xFF6
  2899                           tablat	equ	0xFF5
  2900                           prodh	equ	0xFF4
  2901                           prodl	equ	0xFF3
  2902                           intcon	equ	0xFF2
  2903                           postinc0	equ	0xFEE
  2904                           wreg	equ	0xFE8
  2905                           indf2	equ	0xFDF
  2906                           postinc2	equ	0xFDE
  2907                           postdec2	equ	0xFDD
  2908                           fsr2h	equ	0xFDA
  2909                           fsr2l	equ	0xFD9
  2910                           status	equ	0xFD8
  2911                           
  2912 ;; *************** function _Write1USART *****************
  2913 ;; Defined at:
  2914 ;;		line 14 in file "C:\Program Files (x86)\Microchip\xc8\v1.34\sources\pic18\plib\USART\u1write.c"
  2915 ;; Parameters:    Size  Location     Type
  2916 ;;  data            1    wreg     unsigned char 
  2917 ;; Auto vars:     Size  Location     Type
  2918 ;;  data            1   18[COMRAM] unsigned char 
  2919 ;; Return value:  Size  Location     Type
  2920 ;;		None               void
  2921 ;; Registers used:
  2922 ;;		wreg
  2923 ;; Tracked objects:
  2924 ;;		On entry : 0/0
  2925 ;;		On exit  : 0/0
  2926 ;;		Unchanged: 0/0
  2927 ;; Data sizes:     COMRAM   BANK0   BANK1   BANK2   BANK3   BANK4   BANK5   BANK6   BANK7   BANK8   BANK9  BANK10  BANK1
      +1  BANK12  BANK13  BANK14  BANK15
  2928 ;;      Params:         0       0       0       0       0       0       0       0       0       0       0       0       
      +0       0       0       0       0
  2929 ;;      Locals:         1       0       0       0       0       0       0       0       0       0       0       0       
      +0       0       0       0       0
  2930 ;;      Temps:          0       0       0       0       0       0       0       0       0       0       0       0       
      +0       0       0       0       0
  2931 ;;      Totals:         1       0       0       0       0       0       0       0       0       0       0       0       
      +0       0       0       0       0
  2932 ;;Total ram usage:        1 bytes
  2933 ;; Hardware stack levels used:    1
  2934 ;; Hardware stack levels required when called:    2
  2935 ;; This function calls:
  2936 ;;		Nothing
  2937 ;; This function is called by:
  2938 ;;		_putrs1USART
  2939 ;;		_puts1USART
  2940 ;; This function uses a non-reentrant model
  2941 ;;
  2942                           
  2943                           	psect	text20
  2944  0019D6                     __ptext20:
  2945                           	opt stack 0
  2946  0019D6                     _Write1USART:
  2947                           	opt stack 27
  2948                           
  2949                           ;incstack = 0
  2950                           ;Write1USART@data stored from wreg
  2951  0019D6  6E13               	movwf	Write1USART@data,c
  2952  0019D8  ACAC               	btfss	4012,6,c	;volatile
  2953  0019DA  D005               	goto	l915
  2954  0019DC  90AC               	bcf	4012,0,c	;volatile
  2955  0019DE  A23E               	btfss	_USART1_Status,1,c
  2956  0019E0  D002               	goto	l915
  2957  0019E2  80AC               	bsf	4012,0,c	;volatile
  2958  0019E4  D000               	goto	l915
  2959  0019E6                     l915:
  2960  0019E6  C013  FFAD         	movff	Write1USART@data,4013	;volatile
  2961  0019EA  0012               	return		;funcret
  2962  0019EC                     __end_of_Write1USART:
  2963                           	opt stack 0
  2964                           tblptru	equ	0xFF8
  2965                           tblptrh	equ	0xFF7
  2966                           tblptrl	equ	0xFF6
  2967                           tablat	equ	0xFF5
  2968                           prodh	equ	0xFF4
  2969                           prodl	equ	0xFF3
  2970                           intcon	equ	0xFF2
  2971                           postinc0	equ	0xFEE
  2972                           wreg	equ	0xFE8
  2973                           indf2	equ	0xFDF
  2974                           postinc2	equ	0xFDE
  2975                           postdec2	equ	0xFDD
  2976                           fsr2h	equ	0xFDA
  2977                           fsr2l	equ	0xFD9
  2978                           status	equ	0xFD8
  2979                           
  2980 ;; *************** function _Open1USART *****************
  2981 ;; Defined at:
  2982 ;;		line 72 in file "C:\Program Files (x86)\Microchip\xc8\v1.34\sources\pic18\plib\USART\u1open.c"
  2983 ;; Parameters:    Size  Location     Type
  2984 ;;  config          1    wreg     unsigned char 
  2985 ;;  spbrg           2   18[COMRAM] unsigned int 
  2986 ;; Auto vars:     Size  Location     Type
  2987 ;;  config          1   20[COMRAM] unsigned char 
  2988 ;; Return value:  Size  Location     Type
  2989 ;;		None               void
  2990 ;; Registers used:
  2991 ;;		wreg, status,2
  2992 ;; Tracked objects:
  2993 ;;		On entry : 0/0
  2994 ;;		On exit  : 0/0
  2995 ;;		Unchanged: 0/0
  2996 ;; Data sizes:     COMRAM   BANK0   BANK1   BANK2   BANK3   BANK4   BANK5   BANK6   BANK7   BANK8   BANK9  BANK10  BANK1
      +1  BANK12  BANK13  BANK14  BANK15
  2997 ;;      Params:         2       0       0       0       0       0       0       0       0       0       0       0       
      +0       0       0       0       0
  2998 ;;      Locals:         1       0       0       0       0       0       0       0       0       0       0       0       
      +0       0       0       0       0
  2999 ;;      Temps:          0       0       0       0       0       0       0       0       0       0       0       0       
      +0       0       0       0       0
  3000 ;;      Totals:         3       0       0       0       0       0       0       0       0       0       0       0       
      +0       0       0       0       0
  3001 ;;Total ram usage:        3 bytes
  3002 ;; Hardware stack levels used:    1
  3003 ;; Hardware stack levels required when called:    2
  3004 ;; This function calls:
  3005 ;;		Nothing
  3006 ;; This function is called by:
  3007 ;;		_ConfigUSART
  3008 ;; This function uses a non-reentrant model
  3009 ;;
  3010                           
  3011                           	psect	text21
  3012  00172A                     __ptext21:
  3013                           	opt stack 0
  3014  00172A                     _Open1USART:
  3015                           	opt stack 27
  3016                           
  3017                           ;incstack = 0
  3018                           ;Open1USART@config stored from wreg
  3019  00172A  6E15               	movwf	Open1USART@config,c
  3020  00172C  0E00               	movlw	0
  3021  00172E  6EAC               	movwf	4012,c	;volatile
  3022  001730  0E00               	movlw	0
  3023  001732  6EAB               	movwf	4011,c	;volatile
  3024  001734  A015               	btfss	Open1USART@config,0,c
  3025  001736  D002               	goto	l1437
  3026  001738  88AC               	bsf	4012,4,c	;volatile
  3027  00173A  D000               	goto	l1437
  3028  00173C                     l1437:
  3029  00173C  A215               	btfss	Open1USART@config,1,c
  3030  00173E  D003               	goto	l1441
  3031  001740  8CAC               	bsf	4012,6,c	;volatile
  3032  001742  8CAB               	bsf	4011,6,c	;volatile
  3033  001744  D000               	goto	l1441
  3034  001746                     l1441:
  3035  001746  A415               	btfss	Open1USART@config,2,c
  3036  001748  D002               	goto	l1445
  3037  00174A  8EAC               	bsf	4012,7,c	;volatile
  3038  00174C  D000               	goto	l1445
  3039  00174E                     l1445:
  3040  00174E  A615               	btfss	Open1USART@config,3,c
  3041  001750  D002               	goto	l252
  3042  001752  88AB               	bsf	4011,4,c	;volatile
  3043  001754  D002               	goto	l1449
  3044  001756                     l252:
  3045  001756  8AAB               	bsf	4011,5,c	;volatile
  3046  001758  D000               	goto	l1449
  3047  00175A                     l1449:
  3048  00175A  A815               	btfss	Open1USART@config,4,c
  3049  00175C  D002               	goto	l1453
  3050  00175E  84AC               	bsf	4012,2,c	;volatile
  3051  001760  D000               	goto	l1453
  3052  001762                     l1453:
  3053  001762  AA15               	btfss	Open1USART@config,5,c
  3054  001764  D002               	goto	l1457
  3055  001766  86AB               	bsf	4011,3,c	;volatile
  3056  001768  D000               	goto	l1457
  3057  00176A                     l1457:
  3058  00176A  AC15               	btfss	Open1USART@config,6,c
  3059  00176C  D002               	goto	l256
  3060  00176E  8A9D               	bsf	3997,5,c	;volatile
  3061  001770  D002               	goto	l1461
  3062  001772                     l256:
  3063  001772  9A9D               	bcf	3997,5,c	;volatile
  3064  001774  D000               	goto	l1461
  3065  001776                     l1461:
  3066  001776  AE15               	btfss	Open1USART@config,7,c
  3067  001778  D002               	goto	l258
  3068  00177A  889D               	bsf	3997,4,c	;volatile
  3069  00177C  D001               	goto	l259
  3070  00177E                     l258:
  3071  00177E  989D               	bcf	3997,4,c	;volatile
  3072  001780                     l259:
  3073  001780  C013  FFAF         	movff	Open1USART@spbrg,4015	;volatile
  3074  001784  5014               	movf	Open1USART@spbrg+1,w,c
  3075  001786  6E7F               	movwf	3967,c	;volatile
  3076  001788  8AAC               	bsf	4012,5,c	;volatile
  3077  00178A  8EAB               	bsf	4011,7,c	;volatile
  3078  00178C  9C94               	bcf	3988,6,c	;volatile
  3079  00178E  8E94               	bsf	3988,7,c	;volatile
  3080  001790  B8AC               	btfsc	4012,4,c	;volatile
  3081  001792  BEAC               	btfsc	4012,7,c	;volatile
  3082  001794  D002               	goto	l261
  3083  001796  8C94               	bsf	3988,6,c	;volatile
  3084  001798  D000               	goto	l261
  3085  00179A                     l261:
  3086  00179A  0012               	return		;funcret
  3087  00179C                     __end_of_Open1USART:
  3088                           	opt stack 0
  3089                           tblptru	equ	0xFF8
  3090                           tblptrh	equ	0xFF7
  3091                           tblptrl	equ	0xFF6
  3092                           tablat	equ	0xFF5
  3093                           prodh	equ	0xFF4
  3094                           prodl	equ	0xFF3
  3095                           intcon	equ	0xFF2
  3096                           postinc0	equ	0xFEE
  3097                           wreg	equ	0xFE8
  3098                           indf2	equ	0xFDF
  3099                           postinc2	equ	0xFDE
  3100                           postdec2	equ	0xFDD
  3101                           fsr2h	equ	0xFDA
  3102                           fsr2l	equ	0xFD9
  3103                           status	equ	0xFD8
  3104                           
  3105 ;; *************** function _ConfigTimer0 *****************
  3106 ;; Defined at:
  3107 ;;		line 66 in file "TechDemo3_Test_Routine.c"
  3108 ;; Parameters:    Size  Location     Type
  3109 ;;		None
  3110 ;; Auto vars:     Size  Location     Type
  3111 ;;		None
  3112 ;; Return value:  Size  Location     Type
  3113 ;;		None               void
  3114 ;; Registers used:
  3115 ;;		wreg, status,2, cstack
  3116 ;; Tracked objects:
  3117 ;;		On entry : 0/0
  3118 ;;		On exit  : 0/0
  3119 ;;		Unchanged: 0/0
  3120 ;; Data sizes:     COMRAM   BANK0   BANK1   BANK2   BANK3   BANK4   BANK5   BANK6   BANK7   BANK8   BANK9  BANK10  BANK1
      +1  BANK12  BANK13  BANK14  BANK15
  3121 ;;      Params:         0       0       0       0       0       0       0       0       0       0       0       0       
      +0       0       0       0       0
  3122 ;;      Locals:         0       0       0       0       0       0       0       0       0       0       0       0       
      +0       0       0       0       0
  3123 ;;      Temps:          0       0       0       0       0       0       0       0       0       0       0       0       
      +0       0       0       0       0
  3124 ;;      Totals:         0       0       0       0       0       0       0       0       0       0       0       0       
      +0       0       0       0       0
  3125 ;;Total ram usage:        0 bytes
  3126 ;; Hardware stack levels used:    1
  3127 ;; Hardware stack levels required when called:    3
  3128 ;; This function calls:
  3129 ;;		_WriteTimer0
  3130 ;; This function is called by:
  3131 ;;		_main
  3132 ;; This function uses a non-reentrant model
  3133 ;;
  3134                           
  3135                           	psect	text22
  3136  001A38                     __ptext22:
  3137                           	opt stack 0
  3138  001A38                     _ConfigTimer0:
  3139                           	opt stack 27
  3140                           
  3141                           ;TechDemo3_Test_Routine.c: 67: T0CON = 0x06;
  3142                           
  3143                           ;incstack = 0
  3144  001A38  0E06               	movlw	6
  3145  001A3A  6ED5               	movwf	4053,c	;volatile
  3146                           
  3147                           ;TechDemo3_Test_Routine.c: 68: WriteTimer0(0);
  3148  001A3C  0E00               	movlw	0
  3149  001A3E  6E14               	movwf	WriteTimer0@timer0+1,c
  3150  001A40  0E00               	movlw	0
  3151  001A42  6E13               	movwf	WriteTimer0@timer0,c
  3152  001A44  EC25  F00D         	call	_WriteTimer0	;wreg free
  3153  001A48  0012               	return		;funcret
  3154  001A4A                     __end_of_ConfigTimer0:
  3155                           	opt stack 0
  3156                           tblptru	equ	0xFF8
  3157                           tblptrh	equ	0xFF7
  3158                           tblptrl	equ	0xFF6
  3159                           tablat	equ	0xFF5
  3160                           prodh	equ	0xFF4
  3161                           prodl	equ	0xFF3
  3162                           intcon	equ	0xFF2
  3163                           postinc0	equ	0xFEE
  3164                           wreg	equ	0xFE8
  3165                           indf2	equ	0xFDF
  3166                           postinc2	equ	0xFDE
  3167                           postdec2	equ	0xFDD
  3168                           fsr2h	equ	0xFDA
  3169                           fsr2l	equ	0xFD9
  3170                           status	equ	0xFD8
  3171                           
  3172 ;; *************** function _WriteTimer0 *****************
  3173 ;; Defined at:
  3174 ;;		line 16 in file "C:\Program Files (x86)\Microchip\xc8\v1.34\sources\pic18\plib\Timers\t0write.c"
  3175 ;; Parameters:    Size  Location     Type
  3176 ;;  timer0          2   18[COMRAM] unsigned int 
  3177 ;; Auto vars:     Size  Location     Type
  3178 ;;  timer           2   20[COMRAM] struct Timers
  3179 ;; Return value:  Size  Location     Type
  3180 ;;		None               void
  3181 ;; Registers used:
  3182 ;;		None
  3183 ;; Tracked objects:
  3184 ;;		On entry : 0/0
  3185 ;;		On exit  : 0/0
  3186 ;;		Unchanged: 0/0
  3187 ;; Data sizes:     COMRAM   BANK0   BANK1   BANK2   BANK3   BANK4   BANK5   BANK6   BANK7   BANK8   BANK9  BANK10  BANK1
      +1  BANK12  BANK13  BANK14  BANK15
  3188 ;;      Params:         2       0       0       0       0       0       0       0       0       0       0       0       
      +0       0       0       0       0
  3189 ;;      Locals:         2       0       0       0       0       0       0       0       0       0       0       0       
      +0       0       0       0       0
  3190 ;;      Temps:          0       0       0       0       0       0       0       0       0       0       0       0       
      +0       0       0       0       0
  3191 ;;      Totals:         4       0       0       0       0       0       0       0       0       0       0       0       
      +0       0       0       0       0
  3192 ;;Total ram usage:        4 bytes
  3193 ;; Hardware stack levels used:    1
  3194 ;; Hardware stack levels required when called:    2
  3195 ;; This function calls:
  3196 ;;		Nothing
  3197 ;; This function is called by:
  3198 ;;		_ConfigTimer0
  3199 ;; This function uses a non-reentrant model
  3200 ;;
  3201                           
  3202                           	psect	text23
  3203  001A4A                     __ptext23:
  3204                           	opt stack 0
  3205  001A4A                     _WriteTimer0:
  3206                           	opt stack 27
  3207                           
  3208                           ;incstack = 0
  3209  001A4A  C013  F015         	movff	WriteTimer0@timer0,WriteTimer0@timer
  3210  001A4E  C014  F016         	movff	WriteTimer0@timer0+1,WriteTimer0@timer+1
  3211  001A52  C016  FFD7         	movff	WriteTimer0@timer+1,4055	;volatile
  3212  001A56  C015  FFD6         	movff	WriteTimer0@timer,4054	;volatile
  3213  001A5A  0012               	return		;funcret
  3214  001A5C                     __end_of_WriteTimer0:
  3215                           	opt stack 0
  3216                           tblptru	equ	0xFF8
  3217                           tblptrh	equ	0xFF7
  3218                           tblptrl	equ	0xFF6
  3219                           tablat	equ	0xFF5
  3220                           prodh	equ	0xFF4
  3221                           prodl	equ	0xFF3
  3222                           intcon	equ	0xFF2
  3223                           postinc0	equ	0xFEE
  3224                           wreg	equ	0xFE8
  3225                           indf2	equ	0xFDF
  3226                           postinc2	equ	0xFDE
  3227                           postdec2	equ	0xFDD
  3228                           fsr2h	equ	0xFDA
  3229                           fsr2l	equ	0xFD9
  3230                           status	equ	0xFD8
  3231                           
  3232 ;; *************** function _ConfigInterrupts *****************
  3233 ;; Defined at:
  3234 ;;		line 71 in file "TechDemo3_Test_Routine.c"
  3235 ;; Parameters:    Size  Location     Type
  3236 ;;		None
  3237 ;; Auto vars:     Size  Location     Type
  3238 ;;		None
  3239 ;; Return value:  Size  Location     Type
  3240 ;;		None               void
  3241 ;; Registers used:
  3242 ;;		None
  3243 ;; Tracked objects:
  3244 ;;		On entry : 0/0
  3245 ;;		On exit  : 0/0
  3246 ;;		Unchanged: 0/0
  3247 ;; Data sizes:     COMRAM   BANK0   BANK1   BANK2   BANK3   BANK4   BANK5   BANK6   BANK7   BANK8   BANK9  BANK10  BANK1
      +1  BANK12  BANK13  BANK14  BANK15
  3248 ;;      Params:         0       0       0       0       0       0       0       0       0       0       0       0       
      +0       0       0       0       0
  3249 ;;      Locals:         0       0       0       0       0       0       0       0       0       0       0       0       
      +0       0       0       0       0
  3250 ;;      Temps:          0       0       0       0       0       0       0       0       0       0       0       0       
      +0       0       0       0       0
  3251 ;;      Totals:         0       0       0       0       0       0       0       0       0       0       0       0       
      +0       0       0       0       0
  3252 ;;Total ram usage:        0 bytes
  3253 ;; Hardware stack levels used:    1
  3254 ;; Hardware stack levels required when called:    2
  3255 ;; This function calls:
  3256 ;;		Nothing
  3257 ;; This function is called by:
  3258 ;;		_main
  3259 ;; This function uses a non-reentrant model
  3260 ;;
  3261                           
  3262                           	psect	text24
  3263  001A90                     __ptext24:
  3264                           	opt stack 0
  3265  001A90                     _ConfigInterrupts:
  3266                           	opt stack 28
  3267                           
  3268                           ;TechDemo3_Test_Routine.c: 72: RCONbits.IPEN = 0;
  3269                           
  3270                           ;incstack = 0
  3271  001A90  9ED0               	bcf	4048,7,c	;volatile
  3272                           
  3273                           ;TechDemo3_Test_Routine.c: 73: INTCONbits.GIE = 1;
  3274  001A92  8EF2               	bsf	intcon,7,c	;volatile
  3275                           
  3276                           ;TechDemo3_Test_Routine.c: 74: INTCONbits.RBIE = 0;
  3277  001A94  96F2               	bcf	intcon,3,c	;volatile
  3278                           
  3279                           ;TechDemo3_Test_Routine.c: 75: INTCON3bits.INT1IE = 1;
  3280  001A96  86F0               	bsf	intcon3,3,c	;volatile
  3281                           
  3282                           ;TechDemo3_Test_Routine.c: 76: INTCON2bits.INTEDG1 = 1;
  3283  001A98  8AF1               	bsf	intcon2,5,c	;volatile
  3284                           
  3285                           ;TechDemo3_Test_Routine.c: 77: INTCON3bits.INT1IF = 0;
  3286  001A9A  90F0               	bcf	intcon3,0,c	;volatile
  3287                           
  3288                           ;TechDemo3_Test_Routine.c: 78: INTCONbits.RBIF = 0;
  3289  001A9C  90F2               	bcf	intcon,0,c	;volatile
  3290  001A9E  0012               	return		;funcret
  3291  001AA0                     __end_of_ConfigInterrupts:
  3292                           	opt stack 0
  3293                           tblptru	equ	0xFF8
  3294                           tblptrh	equ	0xFF7
  3295                           tblptrl	equ	0xFF6
  3296                           tablat	equ	0xFF5
  3297                           prodh	equ	0xFF4
  3298                           prodl	equ	0xFF3
  3299                           intcon	equ	0xFF2
  3300                           intcon2	equ	0xFF1
  3301                           intcon3	equ	0xFF0
  3302                           postinc0	equ	0xFEE
  3303                           wreg	equ	0xFE8
  3304                           indf2	equ	0xFDF
  3305                           postinc2	equ	0xFDE
  3306                           postdec2	equ	0xFDD
  3307                           fsr2h	equ	0xFDA
  3308                           fsr2l	equ	0xFD9
  3309                           status	equ	0xFD8
  3310                           
  3311 ;; *************** function _ConfigIO *****************
  3312 ;; Defined at:
  3313 ;;		line 42 in file "TechDemo3_Test_Routine.c"
  3314 ;; Parameters:    Size  Location     Type
  3315 ;;		None
  3316 ;; Auto vars:     Size  Location     Type
  3317 ;;		None
  3318 ;; Return value:  Size  Location     Type
  3319 ;;		None               void
  3320 ;; Registers used:
  3321 ;;		wreg, status,2
  3322 ;; Tracked objects:
  3323 ;;		On entry : 0/0
  3324 ;;		On exit  : 0/0
  3325 ;;		Unchanged: 0/0
  3326 ;; Data sizes:     COMRAM   BANK0   BANK1   BANK2   BANK3   BANK4   BANK5   BANK6   BANK7   BANK8   BANK9  BANK10  BANK1
      +1  BANK12  BANK13  BANK14  BANK15
  3327 ;;      Params:         0       0       0       0       0       0       0       0       0       0       0       0       
      +0       0       0       0       0
  3328 ;;      Locals:         0       0       0       0       0       0       0       0       0       0       0       0       
      +0       0       0       0       0
  3329 ;;      Temps:          0       0       0       0       0       0       0       0       0       0       0       0       
      +0       0       0       0       0
  3330 ;;      Totals:         0       0       0       0       0       0       0       0       0       0       0       0       
      +0       0       0       0       0
  3331 ;;Total ram usage:        0 bytes
  3332 ;; Hardware stack levels used:    1
  3333 ;; Hardware stack levels required when called:    2
  3334 ;; This function calls:
  3335 ;;		Nothing
  3336 ;; This function is called by:
  3337 ;;		_main
  3338 ;; This function uses a non-reentrant model
  3339 ;;
  3340                           
  3341                           	psect	text25
  3342  0019EC                     __ptext25:
  3343                           	opt stack 0
  3344  0019EC                     _ConfigIO:
  3345                           	opt stack 28
  3346                           
  3347                           ;TechDemo3_Test_Routine.c: 43: TRISE = 0xC0;
  3348                           
  3349                           ;incstack = 0
  3350  0019EC  0EC0               	movlw	192
  3351  0019EE  6E96               	movwf	3990,c	;volatile
  3352                           
  3353                           ;TechDemo3_Test_Routine.c: 44: LATE = 0x00;
  3354  0019F0  0E00               	movlw	0
  3355  0019F2  6E8D               	movwf	3981,c	;volatile
  3356                           
  3357                           ;TechDemo3_Test_Routine.c: 46: TRISA = 0xFF;
  3358  0019F4  6892               	setf	3986,c	;volatile
  3359                           
  3360                           ;TechDemo3_Test_Routine.c: 48: TRISB = 0xFF;
  3361  0019F6  6893               	setf	3987,c	;volatile
  3362                           
  3363                           ;TechDemo3_Test_Routine.c: 50: TRISJ = 0x00;
  3364  0019F8  0E00               	movlw	0
  3365  0019FA  6E9A               	movwf	3994,c	;volatile
  3366                           
  3367                           ;TechDemo3_Test_Routine.c: 51: LATJ = 0x00;
  3368  0019FC  0E00               	movlw	0
  3369  0019FE  6E91               	movwf	3985,c	;volatile
  3370  001A00  0012               	return		;funcret
  3371  001A02                     __end_of_ConfigIO:
  3372                           	opt stack 0
  3373                           tblptru	equ	0xFF8
  3374                           tblptrh	equ	0xFF7
  3375                           tblptrl	equ	0xFF6
  3376                           tablat	equ	0xFF5
  3377                           prodh	equ	0xFF4
  3378                           prodl	equ	0xFF3
  3379                           intcon	equ	0xFF2
  3380                           intcon2	equ	0xFF1
  3381                           intcon3	equ	0xFF0
  3382                           postinc0	equ	0xFEE
  3383                           wreg	equ	0xFE8
  3384                           indf2	equ	0xFDF
  3385                           postinc2	equ	0xFDE
  3386                           postdec2	equ	0xFDD
  3387                           fsr2h	equ	0xFDA
  3388                           fsr2l	equ	0xFD9
  3389                           status	equ	0xFD8
  3390                           
  3391 ;; *************** function _ConfigADC *****************
  3392 ;; Defined at:
  3393 ;;		line 55 in file "TechDemo3_Test_Routine.c"
  3394 ;; Parameters:    Size  Location     Type
  3395 ;;		None
  3396 ;; Auto vars:     Size  Location     Type
  3397 ;;		None
  3398 ;; Return value:  Size  Location     Type
  3399 ;;		None               void
  3400 ;; Registers used:
  3401 ;;		wreg, status,2, status,0, cstack
  3402 ;; Tracked objects:
  3403 ;;		On entry : 0/0
  3404 ;;		On exit  : 0/0
  3405 ;;		Unchanged: 0/0
  3406 ;; Data sizes:     COMRAM   BANK0   BANK1   BANK2   BANK3   BANK4   BANK5   BANK6   BANK7   BANK8   BANK9  BANK10  BANK1
      +1  BANK12  BANK13  BANK14  BANK15
  3407 ;;      Params:         0       0       0       0       0       0       0       0       0       0       0       0       
      +0       0       0       0       0
  3408 ;;      Locals:         0       0       0       0       0       0       0       0       0       0       0       0       
      +0       0       0       0       0
  3409 ;;      Temps:          0       0       0       0       0       0       0       0       0       0       0       0       
      +0       0       0       0       0
  3410 ;;      Totals:         0       0       0       0       0       0       0       0       0       0       0       0       
      +0       0       0       0       0
  3411 ;;Total ram usage:        0 bytes
  3412 ;; Hardware stack levels used:    1
  3413 ;; Hardware stack levels required when called:    3
  3414 ;; This function calls:
  3415 ;;		_OpenADC
  3416 ;; This function is called by:
  3417 ;;		_main
  3418 ;; This function uses a non-reentrant model
  3419 ;;
  3420                           
  3421                           	psect	text26
  3422  001AA0                     __ptext26:
  3423                           	opt stack 0
  3424  001AA0                     _ConfigADC:
  3425                           	opt stack 27
  3426                           
  3427                           ;TechDemo3_Test_Routine.c: 56: OpenADC(0b11011111
  3428                           ;TechDemo3_Test_Routine.c: 57: & 0b11111111
  3429                           ;TechDemo3_Test_Routine.c: 58: & 0b11111011,
  3430                           ;TechDemo3_Test_Routine.c: 59: 0b10000111
  3431                           ;TechDemo3_Test_Routine.c: 60: & 0b01111111
  3432                           ;TechDemo3_Test_Routine.c: 61: & 0b11111110
  3433                           ;TechDemo3_Test_Routine.c: 62: & 0b11111101,
  3434                           ;TechDemo3_Test_Routine.c: 63: 10);
  3435                           
  3436                           ;incstack = 0
  3437  001AA0  0E04               	movlw	4
  3438  001AA2  6E13               	movwf	OpenADC@config2,c
  3439  001AA4  0E0A               	movlw	10
  3440  001AA6  6E14               	movwf	OpenADC@portconfig,c
  3441  001AA8  0EDB               	movlw	219
  3442  001AAA  ECCE  F00B         	call	_OpenADC
  3443  001AAE  0012               	return		;funcret
  3444  001AB0                     __end_of_ConfigADC:
  3445                           	opt stack 0
  3446                           tblptru	equ	0xFF8
  3447                           tblptrh	equ	0xFF7
  3448                           tblptrl	equ	0xFF6
  3449                           tablat	equ	0xFF5
  3450                           prodh	equ	0xFF4
  3451                           prodl	equ	0xFF3
  3452                           intcon	equ	0xFF2
  3453                           intcon2	equ	0xFF1
  3454                           intcon3	equ	0xFF0
  3455                           postinc0	equ	0xFEE
  3456                           wreg	equ	0xFE8
  3457                           indf2	equ	0xFDF
  3458                           postinc2	equ	0xFDE
  3459                           postdec2	equ	0xFDD
  3460                           fsr2h	equ	0xFDA
  3461                           fsr2l	equ	0xFD9
  3462                           status	equ	0xFD8
  3463                           
  3464 ;; *************** function _OpenADC *****************
  3465 ;; Defined at:
  3466 ;;		line 68 in file "C:\Program Files (x86)\Microchip\xc8\v1.34\sources\pic18\plib\ADC\adcopen.c"
  3467 ;; Parameters:    Size  Location     Type
  3468 ;;  config          1    wreg     unsigned char 
  3469 ;;  config2         1   18[COMRAM] unsigned char 
  3470 ;;  portconfig      1   19[COMRAM] unsigned char 
  3471 ;; Auto vars:     Size  Location     Type
  3472 ;;  config          1   22[COMRAM] unsigned char 
  3473 ;; Return value:  Size  Location     Type
  3474 ;;		None               void
  3475 ;; Registers used:
  3476 ;;		wreg, status,2, status,0
  3477 ;; Tracked objects:
  3478 ;;		On entry : 0/0
  3479 ;;		On exit  : 0/0
  3480 ;;		Unchanged: 0/0
  3481 ;; Data sizes:     COMRAM   BANK0   BANK1   BANK2   BANK3   BANK4   BANK5   BANK6   BANK7   BANK8   BANK9  BANK10  BANK1
      +1  BANK12  BANK13  BANK14  BANK15
  3482 ;;      Params:         2       0       0       0       0       0       0       0       0       0       0       0       
      +0       0       0       0       0
  3483 ;;      Locals:         1       0       0       0       0       0       0       0       0       0       0       0       
      +0       0       0       0       0
  3484 ;;      Temps:          2       0       0       0       0       0       0       0       0       0       0       0       
      +0       0       0       0       0
  3485 ;;      Totals:         5       0       0       0       0       0       0       0       0       0       0       0       
      +0       0       0       0       0
  3486 ;;Total ram usage:        5 bytes
  3487 ;; Hardware stack levels used:    1
  3488 ;; Hardware stack levels required when called:    2
  3489 ;; This function calls:
  3490 ;;		Nothing
  3491 ;; This function is called by:
  3492 ;;		_ConfigADC
  3493 ;; This function uses a non-reentrant model
  3494 ;;
  3495                           
  3496                           	psect	text27
  3497  00179C                     __ptext27:
  3498                           	opt stack 0
  3499  00179C                     _OpenADC:
  3500                           	opt stack 27
  3501                           
  3502                           ;incstack = 0
  3503                           ;OpenADC@config stored from wreg
  3504  00179C  6E17               	movwf	OpenADC@config,c
  3505  00179E  0E00               	movlw	0
  3506  0017A0  6EC2               	movwf	4034,c	;volatile
  3507  0017A2  0E00               	movlw	0
  3508  0017A4  6EC0               	movwf	4032,c	;volatile
  3509  0017A6  90D8               	bcf	status,0,c
  3510  0017A8  3013               	rrcf	OpenADC@config2,w,c
  3511  0017AA  0B3C               	andlw	60
  3512  0017AC  6EC2               	movwf	4034,c	;volatile
  3513  0017AE  C013  F015         	movff	OpenADC@config2,??_OpenADC
  3514  0017B2  3A15               	swapf	??_OpenADC,f,c
  3515  0017B4  0EF0               	movlw	240
  3516  0017B6  1615               	andwf	??_OpenADC,f,c
  3517  0017B8  0E30               	movlw	48
  3518  0017BA  1615               	andwf	??_OpenADC,f,c
  3519  0017BC  5014               	movf	OpenADC@portconfig,w,c
  3520  0017BE  0B0F               	andlw	15
  3521  0017C0  1015               	iorwf	??_OpenADC,w,c
  3522  0017C2  6EC1               	movwf	4033,c	;volatile
  3523  0017C4  C017  F015         	movff	OpenADC@config,??_OpenADC
  3524  0017C8  90D8               	bcf	status,0,c
  3525  0017CA  3615               	rlcf	??_OpenADC,f,c
  3526  0017CC  90D8               	bcf	status,0,c
  3527  0017CE  3615               	rlcf	??_OpenADC,f,c
  3528  0017D0  0E38               	movlw	56
  3529  0017D2  1615               	andwf	??_OpenADC,f,c
  3530  0017D4  C017  F016         	movff	OpenADC@config,??_OpenADC+1
  3531  0017D8  3A16               	swapf	??_OpenADC+1,f,c
  3532  0017DA  0E0F               	movlw	15
  3533  0017DC  1616               	andwf	??_OpenADC+1,f,c
  3534  0017DE  0E07               	movlw	7
  3535  0017E0  1616               	andwf	??_OpenADC+1,f,c
  3536  0017E2  5017               	movf	OpenADC@config,w,c
  3537  0017E4  0B80               	andlw	128
  3538  0017E6  1016               	iorwf	??_OpenADC+1,w,c
  3539  0017E8  1015               	iorwf	??_OpenADC,w,c
  3540  0017EA  6EC0               	movwf	4032,c	;volatile
  3541  0017EC  AE13               	btfss	OpenADC@config2,7,c
  3542  0017EE  D003               	goto	l203
  3543  0017F0  9C9E               	bcf	3998,6,c	;volatile
  3544  0017F2  8C9D               	bsf	3997,6,c	;volatile
  3545  0017F4  8CF2               	bsf	intcon,6,c	;volatile
  3546  0017F6                     l203:
  3547  0017F6  80C2               	bsf	4034,0,c	;volatile
  3548  0017F8  0012               	return		;funcret
  3549  0017FA                     __end_of_OpenADC:
  3550                           	opt stack 0
  3551                           tblptru	equ	0xFF8
  3552                           tblptrh	equ	0xFF7
  3553                           tblptrl	equ	0xFF6
  3554                           tablat	equ	0xFF5
  3555                           prodh	equ	0xFF4
  3556                           prodl	equ	0xFF3
  3557                           intcon	equ	0xFF2
  3558                           intcon2	equ	0xFF1
  3559                           intcon3	equ	0xFF0
  3560                           postinc0	equ	0xFEE
  3561                           wreg	equ	0xFE8
  3562                           indf2	equ	0xFDF
  3563                           postinc2	equ	0xFDE
  3564                           postdec2	equ	0xFDD
  3565                           fsr2h	equ	0xFDA
  3566                           fsr2l	equ	0xFD9
  3567                           status	equ	0xFD8
  3568                           
  3569 ;; *************** function _ChangeMode *****************
  3570 ;; Defined at:
  3571 ;;		line 153 in file "TechDemo3_Test_Routine.c"
  3572 ;; Parameters:    Size  Location     Type
  3573 ;;		None
  3574 ;; Auto vars:     Size  Location     Type
  3575 ;;		None
  3576 ;; Return value:  Size  Location     Type
  3577 ;;		None               void
  3578 ;; Registers used:
  3579 ;;		wreg, status,2, cstack
  3580 ;; Tracked objects:
  3581 ;;		On entry : 0/0
  3582 ;;		On exit  : 0/0
  3583 ;;		Unchanged: 0/0
  3584 ;; Data sizes:     COMRAM   BANK0   BANK1   BANK2   BANK3   BANK4   BANK5   BANK6   BANK7   BANK8   BANK9  BANK10  BANK1
      +1  BANK12  BANK13  BANK14  BANK15
  3585 ;;      Params:         0       0       0       0       0       0       0       0       0       0       0       0       
      +0       0       0       0       0
  3586 ;;      Locals:         0       0       0       0       0       0       0       0       0       0       0       0       
      +0       0       0       0       0
  3587 ;;      Temps:          0       0       0       0       0       0       0       0       0       0       0       0       
      +0       0       0       0       0
  3588 ;;      Totals:         0       0       0       0       0       0       0       0       0       0       0       0       
      +0       0       0       0       0
  3589 ;;Total ram usage:        0 bytes
  3590 ;; Hardware stack levels used:    1
  3591 ;; Hardware stack levels required when called:    3
  3592 ;; This function calls:
  3593 ;;		_Delay10KTCYx
  3594 ;; This function is called by:
  3595 ;;		_main
  3596 ;; This function uses a non-reentrant model
  3597 ;;
  3598                           
  3599                           	psect	text28
  3600  00193E                     __ptext28:
  3601                           	opt stack 0
  3602  00193E                     _ChangeMode:
  3603                           	opt stack 27
  3604                           
  3605                           ;TechDemo3_Test_Routine.c: 154: LATJ = 0x00;
  3606                           
  3607                           ;incstack = 0
  3608  00193E  0E00               	movlw	0
  3609  001940  6E91               	movwf	3985,c	;volatile
  3610                           
  3611                           ;TechDemo3_Test_Routine.c: 155: LATJ = 0x1F;
  3612  001942  0E1F               	movlw	31
  3613  001944  6E91               	movwf	3985,c	;volatile
  3614                           
  3615                           ;TechDemo3_Test_Routine.c: 156: Delay10KTCYx(125);
  3616  001946  0E7D               	movlw	125
  3617  001948  ECD4  F00C         	call	_Delay10KTCYx
  3618                           
  3619                           ;TechDemo3_Test_Routine.c: 157: LATJ = 0x00;
  3620  00194C  0E00               	movlw	0
  3621  00194E  6E91               	movwf	3985,c	;volatile
  3622                           
  3623                           ;TechDemo3_Test_Routine.c: 158: Delay10KTCYx(125);
  3624  001950  0E7D               	movlw	125
  3625  001952  ECD4  F00C         	call	_Delay10KTCYx
  3626                           
  3627                           ;TechDemo3_Test_Routine.c: 159: LATJ = 0x1F;
  3628  001956  0E1F               	movlw	31
  3629  001958  6E91               	movwf	3985,c	;volatile
  3630                           
  3631                           ;TechDemo3_Test_Routine.c: 160: Delay10KTCYx(125);
  3632  00195A  0E7D               	movlw	125
  3633  00195C  ECD4  F00C         	call	_Delay10KTCYx
  3634                           
  3635                           ;TechDemo3_Test_Routine.c: 161: LATJ = 0x00;
  3636  001960  0E00               	movlw	0
  3637  001962  6E91               	movwf	3985,c	;volatile
  3638  001964  0012               	return		;funcret
  3639  001966                     __end_of_ChangeMode:
  3640                           	opt stack 0
  3641                           tblptru	equ	0xFF8
  3642                           tblptrh	equ	0xFF7
  3643                           tblptrl	equ	0xFF6
  3644                           tablat	equ	0xFF5
  3645                           prodh	equ	0xFF4
  3646                           prodl	equ	0xFF3
  3647                           intcon	equ	0xFF2
  3648                           intcon2	equ	0xFF1
  3649                           intcon3	equ	0xFF0
  3650                           postinc0	equ	0xFEE
  3651                           wreg	equ	0xFE8
  3652                           indf2	equ	0xFDF
  3653                           postinc2	equ	0xFDE
  3654                           postdec2	equ	0xFDD
  3655                           fsr2h	equ	0xFDA
  3656                           fsr2l	equ	0xFD9
  3657                           status	equ	0xFD8
  3658                           
  3659 ;; *************** function _Delay10KTCYx *****************
  3660 ;; Defined at:
  3661 ;;		line 8 in file "C:\Program Files (x86)\Microchip\xc8\v1.34\sources\pic18\d10ktcyx.c"
  3662 ;; Parameters:    Size  Location     Type
  3663 ;;  unit            1    wreg     unsigned char 
  3664 ;; Auto vars:     Size  Location     Type
  3665 ;;  unit            1   19[COMRAM] unsigned char 
  3666 ;; Return value:  Size  Location     Type
  3667 ;;		None               void
  3668 ;; Registers used:
  3669 ;;		wreg
  3670 ;; Tracked objects:
  3671 ;;		On entry : 0/0
  3672 ;;		On exit  : 0/0
  3673 ;;		Unchanged: 0/0
  3674 ;; Data sizes:     COMRAM   BANK0   BANK1   BANK2   BANK3   BANK4   BANK5   BANK6   BANK7   BANK8   BANK9  BANK10  BANK1
      +1  BANK12  BANK13  BANK14  BANK15
  3675 ;;      Params:         0       0       0       0       0       0       0       0       0       0       0       0       
      +0       0       0       0       0
  3676 ;;      Locals:         1       0       0       0       0       0       0       0       0       0       0       0       
      +0       0       0       0       0
  3677 ;;      Temps:          1       0       0       0       0       0       0       0       0       0       0       0       
      +0       0       0       0       0
  3678 ;;      Totals:         2       0       0       0       0       0       0       0       0       0       0       0       
      +0       0       0       0       0
  3679 ;;Total ram usage:        2 bytes
  3680 ;; Hardware stack levels used:    1
  3681 ;; Hardware stack levels required when called:    2
  3682 ;; This function calls:
  3683 ;;		Nothing
  3684 ;; This function is called by:
  3685 ;;		_ChangeMode
  3686 ;;		_main
  3687 ;; This function uses a non-reentrant model
  3688 ;;
  3689                           
  3690                           	psect	text29
  3691  0019A8                     __ptext29:
  3692                           	opt stack 0
  3693  0019A8                     _Delay10KTCYx:
  3694                           	opt stack 28
  3695                           
  3696                           ;incstack = 0
  3697                           ;Delay10KTCYx@unit stored from wreg
  3698  0019A8  6E14               	movwf	Delay10KTCYx@unit,c
  3699  0019AA  0E0D               	movlw	13
  3700  0019AC  6E13               	movwf	??_Delay10KTCYx& (0+255),c
  3701  0019AE  0EFC               	movlw	252
  3702  0019B0                     u1497:
  3703  0019B0  2EE8               	decfsz	wreg,f,c
  3704  0019B2  D7FE               	goto	u1497
  3705  0019B4  2E13               	decfsz	??_Delay10KTCYx& (0+255),f,c
  3706  0019B6  D7FC               	goto	u1497
  3707  0019B8  2E14               	decfsz	Delay10KTCYx@unit,f,c
  3708  0019BA  D7F7               	goto	l999
  3709  0019BC  D000               	goto	l524
  3710  0019BE                     l524:
  3711  0019BE  0012               	return		;funcret
  3712  0019C0                     __end_of_Delay10KTCYx:
  3713                           	opt stack 0
  3714                           tblptru	equ	0xFF8
  3715                           tblptrh	equ	0xFF7
  3716                           tblptrl	equ	0xFF6
  3717                           tablat	equ	0xFF5
  3718                           prodh	equ	0xFF4
  3719                           prodl	equ	0xFF3
  3720                           intcon	equ	0xFF2
  3721                           intcon2	equ	0xFF1
  3722                           intcon3	equ	0xFF0
  3723                           postinc0	equ	0xFEE
  3724                           wreg	equ	0xFE8
  3725                           indf2	equ	0xFDF
  3726                           postinc2	equ	0xFDE
  3727                           postdec2	equ	0xFDD
  3728                           fsr2h	equ	0xFDA
  3729                           fsr2l	equ	0xFD9
  3730                           status	equ	0xFD8
  3731                           
  3732 ;; *************** function _isr *****************
  3733 ;; Defined at:
  3734 ;;		line 20 in file "TechDemo3_Test_Routine.c"
  3735 ;; Parameters:    Size  Location     Type
  3736 ;;		None
  3737 ;; Auto vars:     Size  Location     Type
  3738 ;;		None
  3739 ;; Return value:  Size  Location     Type
  3740 ;;		None               void
  3741 ;; Registers used:
  3742 ;;		wreg, status,2, status,0, cstack
  3743 ;; Tracked objects:
  3744 ;;		On entry : 0/0
  3745 ;;		On exit  : 0/0
  3746 ;;		Unchanged: 0/0
  3747 ;; Data sizes:     COMRAM   BANK0   BANK1   BANK2   BANK3   BANK4   BANK5   BANK6   BANK7   BANK8   BANK9  BANK10  BANK1
      +1  BANK12  BANK13  BANK14  BANK15
  3748 ;;      Params:         0       0       0       0       0       0       0       0       0       0       0       0       
      +0       0       0       0       0
  3749 ;;      Locals:         0       0       0       0       0       0       0       0       0       0       0       0       
      +0       0       0       0       0
  3750 ;;      Temps:         14       0       0       0       0       0       0       0       0       0       0       0       
      +0       0       0       0       0
  3751 ;;      Totals:        14       0       0       0       0       0       0       0       0       0       0       0       
      +0       0       0       0       0
  3752 ;;Total ram usage:       14 bytes
  3753 ;; Hardware stack levels used:    1
  3754 ;; Hardware stack levels required when called:    1
  3755 ;; This function calls:
  3756 ;;		_ReadTimer0
  3757 ;;		i2_WriteTimer0
  3758 ;; This function is called by:
  3759 ;;		Interrupt level 2
  3760 ;; This function uses a non-reentrant model
  3761 ;;
  3762                           
  3763                           	psect	intcode
  3764  000008                     __pintcode:
  3765                           	opt stack 0
  3766  000008                     _isr:
  3767                           	opt stack 26
  3768                           
  3769                           ;incstack = 0
  3770  000008  CFFA F005          	movff	pclath,??_isr
  3771  00000C  CFFB F006          	movff	pclatu,??_isr+1
  3772  000010  CFE9 F007          	movff	fsr0l,??_isr+2
  3773  000014  EDF9  F00A         	call	int_func,f	;refresh shadow registers
  3774                           pclatu	equ	0xFFB
  3775                           pclath	equ	0xFFA
  3776                           tblptru	equ	0xFF8
  3777                           tblptrh	equ	0xFF7
  3778                           tblptrl	equ	0xFF6
  3779                           tablat	equ	0xFF5
  3780                           prodh	equ	0xFF4
  3781                           prodl	equ	0xFF3
  3782                           intcon	equ	0xFF2
  3783                           intcon2	equ	0xFF1
  3784                           intcon3	equ	0xFF0
  3785                           postinc0	equ	0xFEE
  3786                           fsr0l	equ	0xFE9
  3787                           wreg	equ	0xFE8
  3788                           indf2	equ	0xFDF
  3789                           postinc2	equ	0xFDE
  3790                           postdec2	equ	0xFDD
  3791                           fsr2h	equ	0xFDA
  3792                           fsr2l	equ	0xFD9
  3793                           status	equ	0xFD8
  3794                           
  3795                           	psect	intcode_body
  3796  0015F2                     __pintcode_body:
  3797                           	opt stack 26
  3798  0015F2                     int_func:
  3799                           	opt stack 26
  3800  0015F2  0006               	pop		; remove dummy address from shadow register refresh
  3801  0015F4  CFEA F008          	movff	fsr0h,??_isr+3
  3802  0015F8  CFE1 F009          	movff	fsr1l,??_isr+4
  3803  0015FC  CFE2 F00A          	movff	fsr1h,??_isr+5
  3804  001600  CFD9 F00B          	movff	fsr2l,??_isr+6
  3805  001604  CFDA F00C          	movff	fsr2h,??_isr+7
  3806  001608  CFF3 F00D          	movff	prodl,??_isr+8
  3807  00160C  CFF4 F00E          	movff	prodh,??_isr+9
  3808  001610  CFF6 F00F          	movff	tblptrl,??_isr+10
  3809  001614  CFF7 F010          	movff	tblptrh,??_isr+11
  3810  001618  CFF8 F011          	movff	tblptru,??_isr+12
  3811  00161C  CFF5 F012          	movff	tablat,??_isr+13
  3812                           
  3813                           ;TechDemo3_Test_Routine.c: 21: if (INTCON3bits.INT1IF == 1) {
  3814  001620  A0F0               	btfss	intcon3,0,c	;volatile
  3815  001622  D004               	goto	i2l1775
  3816                           
  3817                           ;TechDemo3_Test_Routine.c: 22: INTCON3bits.INT1IF = 0;
  3818  001624  90F0               	bcf	intcon3,0,c	;volatile
  3819                           
  3820                           ;TechDemo3_Test_Routine.c: 23: mode ^= 0x01;
  3821  001626  0E01               	movlw	1
  3822  001628  1A43               	xorwf	_mode,f,c	;volatile
  3823  00162A  D000               	goto	i2l1775
  3824  00162C                     i2l1775:
  3825                           
  3826                           ;TechDemo3_Test_Routine.c: 24: }
  3827                           ;TechDemo3_Test_Routine.c: 26: if (INTCONbits.RBIF == 1) {
  3828  00162C  A0F2               	btfss	intcon,0,c	;volatile
  3829  00162E  D01A               	goto	i2l85
  3830                           
  3831                           ;TechDemo3_Test_Routine.c: 27: INTCONbits.RBIF = 0;
  3832  001630  90F2               	bcf	intcon,0,c	;volatile
  3833                           
  3834                           ;TechDemo3_Test_Routine.c: 28: if (PORTBbits.RB4 == 1) {
  3835  001632  A881               	btfss	3969,4,c	;volatile
  3836  001634  D00A               	goto	i2l1785
  3837                           
  3838                           ;TechDemo3_Test_Routine.c: 29: WriteTimer0(0);
  3839  001636  0E00               	movlw	0
  3840  001638  6E02               	movwf	i2WriteTimer0@timer0+1,c
  3841  00163A  0E00               	movlw	0
  3842  00163C  6E01               	movwf	i2WriteTimer0@timer0,c
  3843  00163E  EC2E  F00D         	call	i2_WriteTimer0	;wreg free
  3844                           
  3845                           ;TechDemo3_Test_Routine.c: 30: T0CONbits.TMR0ON = 1;
  3846  001642  8ED5               	bsf	4053,7,c	;volatile
  3847                           
  3848                           ;TechDemo3_Test_Routine.c: 31: echo_ready = 0;
  3849  001644  0E00               	movlw	0
  3850  001646  6E41               	movwf	_echo_ready,c	;volatile
  3851  001648  D000               	goto	i2l1785
  3852  00164A                     i2l1785:
  3853                           
  3854                           ;TechDemo3_Test_Routine.c: 32: }
  3855                           ;TechDemo3_Test_Routine.c: 33: if (PORTBbits.RB4 == 0) {
  3856  00164A  B881               	btfsc	3969,4,c	;volatile
  3857  00164C  D00B               	goto	i2l85
  3858                           
  3859                           ;TechDemo3_Test_Routine.c: 34: T0CONbits.TMR0ON = 0;
  3860  00164E  9ED5               	bcf	4053,7,c	;volatile
  3861                           
  3862                           ;TechDemo3_Test_Routine.c: 35: INTCONbits.RBIE = 0;
  3863  001650  96F2               	bcf	intcon,3,c	;volatile
  3864                           
  3865                           ;TechDemo3_Test_Routine.c: 36: echo_time = ReadTimer0();
  3866  001652  EC37  F00D         	call	_ReadTimer0	;wreg free
  3867  001656  C001  F04C         	movff	?_ReadTimer0,_echo_time	;volatile
  3868  00165A  C002  F04D         	movff	?_ReadTimer0+1,_echo_time+1	;volatile
  3869                           
  3870                           ;TechDemo3_Test_Routine.c: 37: echo_ready = 1;
  3871  00165E  0E01               	movlw	1
  3872  001660  6E41               	movwf	_echo_ready,c	;volatile
  3873  001662  D000               	goto	i2l85
  3874  001664                     i2l85:
  3875  001664  C012  FFF5         	movff	??_isr+13,tablat
  3876  001668  C011  FFF8         	movff	??_isr+12,tblptru
  3877  00166C  C010  FFF7         	movff	??_isr+11,tblptrh
  3878  001670  C00F  FFF6         	movff	??_isr+10,tblptrl
  3879  001674  C00E  FFF4         	movff	??_isr+9,prodh
  3880  001678  C00D  FFF3         	movff	??_isr+8,prodl
  3881  00167C  C00C  FFDA         	movff	??_isr+7,fsr2h
  3882  001680  C00B  FFD9         	movff	??_isr+6,fsr2l
  3883  001684  C00A  FFE2         	movff	??_isr+5,fsr1h
  3884  001688  C009  FFE1         	movff	??_isr+4,fsr1l
  3885  00168C  C008  FFEA         	movff	??_isr+3,fsr0h
  3886  001690  C007  FFE9         	movff	??_isr+2,fsr0l
  3887  001694  C006  FFFB         	movff	??_isr+1,pclatu
  3888  001698  C005  FFFA         	movff	??_isr,pclath
  3889  00169C  0011               	retfie		f
  3890  00169E                     __end_of_isr:
  3891                           	opt stack 0
  3892                           pclatu	equ	0xFFB
  3893                           pclath	equ	0xFFA
  3894                           tblptru	equ	0xFF8
  3895                           tblptrh	equ	0xFF7
  3896                           tblptrl	equ	0xFF6
  3897                           tablat	equ	0xFF5
  3898                           prodh	equ	0xFF4
  3899                           prodl	equ	0xFF3
  3900                           intcon	equ	0xFF2
  3901                           intcon2	equ	0xFF1
  3902                           intcon3	equ	0xFF0
  3903                           postinc0	equ	0xFEE
  3904                           fsr0h	equ	0xFEA
  3905                           fsr0l	equ	0xFE9
  3906                           wreg	equ	0xFE8
  3907                           fsr1h	equ	0xFE2
  3908                           fsr1l	equ	0xFE1
  3909                           indf2	equ	0xFDF
  3910                           postinc2	equ	0xFDE
  3911                           postdec2	equ	0xFDD
  3912                           fsr2h	equ	0xFDA
  3913                           fsr2l	equ	0xFD9
  3914                           status	equ	0xFD8
  3915                           
  3916 ;; *************** function i2_WriteTimer0 *****************
  3917 ;; Defined at:
  3918 ;;		line 16 in file "C:\Program Files (x86)\Microchip\xc8\v1.34\sources\pic18\plib\Timers\t0write.c"
  3919 ;; Parameters:    Size  Location     Type
  3920 ;;  timer0          2    0[COMRAM] unsigned int 
  3921 ;; Auto vars:     Size  Location     Type
  3922 ;;  WriteTimer0     2    2[COMRAM] struct Timers
  3923 ;; Return value:  Size  Location     Type
  3924 ;;		None               void
  3925 ;; Registers used:
  3926 ;;		None
  3927 ;; Tracked objects:
  3928 ;;		On entry : 0/0
  3929 ;;		On exit  : 0/0
  3930 ;;		Unchanged: 0/0
  3931 ;; Data sizes:     COMRAM   BANK0   BANK1   BANK2   BANK3   BANK4   BANK5   BANK6   BANK7   BANK8   BANK9  BANK10  BANK1
      +1  BANK12  BANK13  BANK14  BANK15
  3932 ;;      Params:         2       0       0       0       0       0       0       0       0       0       0       0       
      +0       0       0       0       0
  3933 ;;      Locals:         2       0       0       0       0       0       0       0       0       0       0       0       
      +0       0       0       0       0
  3934 ;;      Temps:          0       0       0       0       0       0       0       0       0       0       0       0       
      +0       0       0       0       0
  3935 ;;      Totals:         4       0       0       0       0       0       0       0       0       0       0       0       
      +0       0       0       0       0
  3936 ;;Total ram usage:        4 bytes
  3937 ;; Hardware stack levels used:    1
  3938 ;; This function calls:
  3939 ;;		Nothing
  3940 ;; This function is called by:
  3941 ;;		_isr
  3942 ;; This function uses a non-reentrant model
  3943 ;;
  3944                           
  3945                           	psect	text31
  3946  001A5C                     __ptext31:
  3947                           	opt stack 0
  3948  001A5C                     i2_WriteTimer0:
  3949                           	opt stack 26
  3950                           
  3951                           ;incstack = 0
  3952  001A5C  C001  F003         	movff	i2WriteTimer0@timer0,i2WriteTimer0@timer
  3953  001A60  C002  F004         	movff	i2WriteTimer0@timer0+1,i2WriteTimer0@timer+1
  3954  001A64  C004  FFD7         	movff	i2WriteTimer0@timer+1,4055	;volatile
  3955  001A68  C003  FFD6         	movff	i2WriteTimer0@timer,4054	;volatile
  3956  001A6C  0012               	return		;funcret
  3957  001A6E                     __end_ofi2_WriteTimer0:
  3958                           	opt stack 0
  3959                           pclatu	equ	0xFFB
  3960                           pclath	equ	0xFFA
  3961                           tblptru	equ	0xFF8
  3962                           tblptrh	equ	0xFF7
  3963                           tblptrl	equ	0xFF6
  3964                           tablat	equ	0xFF5
  3965                           prodh	equ	0xFF4
  3966                           prodl	equ	0xFF3
  3967                           intcon	equ	0xFF2
  3968                           intcon2	equ	0xFF1
  3969                           intcon3	equ	0xFF0
  3970                           postinc0	equ	0xFEE
  3971                           fsr0h	equ	0xFEA
  3972                           fsr0l	equ	0xFE9
  3973                           wreg	equ	0xFE8
  3974                           fsr1h	equ	0xFE2
  3975                           fsr1l	equ	0xFE1
  3976                           indf2	equ	0xFDF
  3977                           postinc2	equ	0xFDE
  3978                           postdec2	equ	0xFDD
  3979                           fsr2h	equ	0xFDA
  3980                           fsr2l	equ	0xFD9
  3981                           status	equ	0xFD8
  3982                           
  3983 ;; *************** function _ReadTimer0 *****************
  3984 ;; Defined at:
  3985 ;;		line 16 in file "C:\Program Files (x86)\Microchip\xc8\v1.34\sources\pic18\plib\Timers\t0read.c"
  3986 ;; Parameters:    Size  Location     Type
  3987 ;;		None
  3988 ;; Auto vars:     Size  Location     Type
  3989 ;;  timer           2    2[COMRAM] struct Timers
  3990 ;; Return value:  Size  Location     Type
  3991 ;;                  2    0[COMRAM] unsigned int 
  3992 ;; Registers used:
  3993 ;;		None
  3994 ;; Tracked objects:
  3995 ;;		On entry : 0/0
  3996 ;;		On exit  : 0/0
  3997 ;;		Unchanged: 0/0
  3998 ;; Data sizes:     COMRAM   BANK0   BANK1   BANK2   BANK3   BANK4   BANK5   BANK6   BANK7   BANK8   BANK9  BANK10  BANK1
      +1  BANK12  BANK13  BANK14  BANK15
  3999 ;;      Params:         2       0       0       0       0       0       0       0       0       0       0       0       
      +0       0       0       0       0
  4000 ;;      Locals:         2       0       0       0       0       0       0       0       0       0       0       0       
      +0       0       0       0       0
  4001 ;;      Temps:          0       0       0       0       0       0       0       0       0       0       0       0       
      +0       0       0       0       0
  4002 ;;      Totals:         4       0       0       0       0       0       0       0       0       0       0       0       
      +0       0       0       0       0
  4003 ;;Total ram usage:        4 bytes
  4004 ;; Hardware stack levels used:    1
  4005 ;; This function calls:
  4006 ;;		Nothing
  4007 ;; This function is called by:
  4008 ;;		_isr
  4009 ;; This function uses a non-reentrant model
  4010 ;;
  4011                           
  4012                           	psect	text32
  4013  001A6E                     __ptext32:
  4014                           	opt stack 0
  4015  001A6E                     _ReadTimer0:
  4016                           	opt stack 26
  4017                           
  4018                           ;incstack = 0
  4019  001A6E  CFD6 F003          	movff	4054,ReadTimer0@timer	;volatile
  4020  001A72  CFD7 F004          	movff	4055,ReadTimer0@timer+1	;volatile
  4021  001A76  C003  F001         	movff	ReadTimer0@timer,?_ReadTimer0
  4022  001A7A  C004  F002         	movff	ReadTimer0@timer+1,?_ReadTimer0+1
  4023  001A7E  0012               	return		;funcret
  4024  001A80                     __end_of_ReadTimer0:
  4025                           	opt stack 0
  4026                           pclatu	equ	0xFFB
  4027                           pclath	equ	0xFFA
  4028                           tblptru	equ	0xFF8
  4029                           tblptrh	equ	0xFF7
  4030                           tblptrl	equ	0xFF6
  4031                           tablat	equ	0xFF5
  4032                           prodh	equ	0xFF4
  4033                           prodl	equ	0xFF3
  4034                           intcon	equ	0xFF2
  4035                           intcon2	equ	0xFF1
  4036                           intcon3	equ	0xFF0
  4037                           postinc0	equ	0xFEE
  4038                           fsr0h	equ	0xFEA
  4039                           fsr0l	equ	0xFE9
  4040                           wreg	equ	0xFE8
  4041                           fsr1h	equ	0xFE2
  4042                           fsr1l	equ	0xFE1
  4043                           indf2	equ	0xFDF
  4044                           postinc2	equ	0xFDE
  4045                           postdec2	equ	0xFDD
  4046                           fsr2h	equ	0xFDA
  4047                           fsr2l	equ	0xFD9
  4048                           status	equ	0xFD8
  4049                           pclatu	equ	0xFFB
  4050                           pclath	equ	0xFFA
  4051                           tblptru	equ	0xFF8
  4052                           tblptrh	equ	0xFF7
  4053                           tblptrl	equ	0xFF6
  4054                           tablat	equ	0xFF5
  4055                           prodh	equ	0xFF4
  4056                           prodl	equ	0xFF3
  4057                           intcon	equ	0xFF2
  4058                           intcon2	equ	0xFF1
  4059                           intcon3	equ	0xFF0
  4060                           postinc0	equ	0xFEE
  4061                           fsr0h	equ	0xFEA
  4062                           fsr0l	equ	0xFE9
  4063                           wreg	equ	0xFE8
  4064                           fsr1h	equ	0xFE2
  4065                           fsr1l	equ	0xFE1
  4066                           indf2	equ	0xFDF
  4067                           postinc2	equ	0xFDE
  4068                           postdec2	equ	0xFDD
  4069                           fsr2h	equ	0xFDA
  4070                           fsr2l	equ	0xFD9
  4071                           status	equ	0xFD8
  4072                           
  4073                           	psect	rparam
  4074  0000                     pclatu	equ	0xFFB
  4075                           pclath	equ	0xFFA
  4076                           tblptru	equ	0xFF8
  4077                           tblptrh	equ	0xFF7
  4078                           tblptrl	equ	0xFF6
  4079                           tablat	equ	0xFF5
  4080                           prodh	equ	0xFF4
  4081                           prodl	equ	0xFF3
  4082                           intcon	equ	0xFF2
  4083                           intcon2	equ	0xFF1
  4084                           intcon3	equ	0xFF0
  4085                           postinc0	equ	0xFEE
  4086                           fsr0h	equ	0xFEA
  4087                           fsr0l	equ	0xFE9
  4088                           wreg	equ	0xFE8
  4089                           fsr1h	equ	0xFE2
  4090                           fsr1l	equ	0xFE1
  4091                           indf2	equ	0xFDF
  4092                           postinc2	equ	0xFDE
  4093                           postdec2	equ	0xFDD
  4094                           fsr2h	equ	0xFDA
  4095                           fsr2l	equ	0xFD9
  4096                           status	equ	0xFD8


Data Sizes:
    Strings     84
    Constant    10
    Data        0
    BSS         31
    Persistent  0
    Stack       0

Auto Spaces:
    Space          Size  Autos    Used
    COMRAM           95     46      77
    BANK0           160      7       7
    BANK1           256      0       0
    BANK2           256      0       0
    BANK3           256      0       0
    BANK4           256      0       0
    BANK5           256      0       0
    BANK6           256      0       0
    BANK7           256      0       0
    BANK8           256      0       0
    BANK9           256      0       0
    BANK10          256      0       0
    BANK11          256      0       0
    BANK12          256      0       0
    BANK13          256      0       0
    BANK14          239      0       0
    BANK15           96      0       0

Pointer List with Targets:

    puts1USART@data	PTR unsigned char  size(2) Largest target is 8
		 -> buffer(COMRAM[8]), 

    putrs1USART@data	PTR const unsigned char  size(2) Largest target is 28
		 -> STR_3(CODE[28]), STR_2(CODE[21]), STR_1(CODE[27]), 

    sprintf@f	PTR const unsigned char  size(2) Largest target is 8
		 -> STR_4(CODE[8]), 

    sprintf@sp	PTR unsigned char  size(2) Largest target is 8
		 -> buffer(COMRAM[8]), 

    sprintf@ap	PTR void [1] size(2) Largest target is 2
		 -> ?_sprintf(COMRAM[2]), 


Critical Paths under _main in COMRAM

    _main->___ftmul
    _sprintf->___fttol
    ___lwmod->___lwdiv
    _puts1USART->_Write1USART
    ___lwtoft->___ftpack
    ___ftmul->___lwtoft
    _GetDistance->_Delay1TCYx
    _GetADCReading->_ReadADC
    _ConfigUSART->_Open1USART
    _ConfigUSART->_putrs1USART
    _putrs1USART->_Write1USART
    _ConfigTimer0->_WriteTimer0
    _ConfigADC->_OpenADC
    _ChangeMode->_Delay10KTCYx

Critical Paths under _isr in COMRAM

    _isr->_ReadTimer0
    _isr->i2_WriteTimer0

Critical Paths under _main in BANK0

    _main->_sprintf

Critical Paths under _isr in BANK0

    None.

Critical Paths under _main in BANK1

    None.

Critical Paths under _isr in BANK1

    None.

Critical Paths under _main in BANK2

    None.

Critical Paths under _isr in BANK2

    None.

Critical Paths under _main in BANK3

    None.

Critical Paths under _isr in BANK3

    None.

Critical Paths under _main in BANK4

    None.

Critical Paths under _isr in BANK4

    None.

Critical Paths under _main in BANK5

    None.

Critical Paths under _isr in BANK5

    None.

Critical Paths under _main in BANK6

    None.

Critical Paths under _isr in BANK6

    None.

Critical Paths under _main in BANK7

    None.

Critical Paths under _isr in BANK7

    None.

Critical Paths under _main in BANK8

    None.

Critical Paths under _isr in BANK8

    None.

Critical Paths under _main in BANK9

    None.

Critical Paths under _isr in BANK9

    None.

Critical Paths under _main in BANK10

    None.

Critical Paths under _isr in BANK10

    None.

Critical Paths under _main in BANK11

    None.

Critical Paths under _isr in BANK11

    None.

Critical Paths under _main in BANK12

    None.

Critical Paths under _isr in BANK12

    None.

Critical Paths under _main in BANK13

    None.

Critical Paths under _isr in BANK13

    None.

Critical Paths under _main in BANK14

    None.

Critical Paths under _isr in BANK14

    None.

Critical Paths under _main in BANK15

    None.

Critical Paths under _isr in BANK15

    None.

Call Graph Tables:

 ---------------------------------------------------------------------------------
 (Depth) Function   	        Calls       Base Space   Used Autos Params    Refs
 ---------------------------------------------------------------------------------
 (0) _main                                                 2     2      0    7051
                                             44 COMRAM     2     2      0
                         _ChangeMode
                          _ConfigADC
                           _ConfigIO
                   _ConfigInterrupts
                       _ConfigTimer0
                        _ConfigUSART
                       _Delay10KTCYx
                        _Delay1KTCYx
                      _GetADCReading
                        _GetDistance
                          _SelectLED
                            ___ftmul
                            ___fttol
                           ___lwtoft
                        _putrs1USART
                         _puts1USART
                            _sprintf
 ---------------------------------------------------------------------------------
 (1) _sprintf                                             23    17      6    1559
                                             33 COMRAM     7     1      6
                                              0 BANK0      7     7      0
                            ___fttol (ARG)
                            ___lwdiv
                            ___lwmod
 ---------------------------------------------------------------------------------
 (2) ___lwmod                                              5     1      4     362
                                             25 COMRAM     5     1      4
                            ___lwdiv (ARG)
 ---------------------------------------------------------------------------------
 (2) ___lwdiv                                              7     3      4     371
                                             18 COMRAM     7     3      4
 ---------------------------------------------------------------------------------
 (1) _puts1USART                                           2     0      2     112
                                             19 COMRAM     2     0      2
                        _Write1USART
 ---------------------------------------------------------------------------------
 (1) ___lwtoft                                             3     0      3    1704
                                             26 COMRAM     3     0      3
                           ___ftpack
 ---------------------------------------------------------------------------------
 (1) ___fttol                                             15    11      4     305
                                             18 COMRAM    15    11      4
 ---------------------------------------------------------------------------------
 (1) ___ftmul                                             15     9      6    2141
                                             29 COMRAM    15     9      6
                           ___ftpack
                           ___lwtoft (ARG)
 ---------------------------------------------------------------------------------
 (2) ___ftpack                                             8     3      5    1629
                                             18 COMRAM     8     3      5
 ---------------------------------------------------------------------------------
 (1) _SelectLED                                            1     1      0      15
                                             18 COMRAM     1     1      0
 ---------------------------------------------------------------------------------
 (1) _GetDistance                                          0     0      0      15
                         _Delay1TCYx
 ---------------------------------------------------------------------------------
 (2) _Delay1TCYx                                           1     1      0      15
                                             18 COMRAM     1     1      0
 ---------------------------------------------------------------------------------
 (1) _GetADCReading                                        3     1      2      37
                                             22 COMRAM     3     1      2
                            _BusyADC
                         _ConvertADC
                            _ReadADC
                         _SetChanADC
 ---------------------------------------------------------------------------------
 (2) _SetChanADC                                           2     2      0      15
                                             18 COMRAM     2     2      0
 ---------------------------------------------------------------------------------
 (2) _ReadADC                                              4     2      2       0
                                             18 COMRAM     4     2      2
 ---------------------------------------------------------------------------------
 (2) _ConvertADC                                           0     0      0       0
 ---------------------------------------------------------------------------------
 (2) _BusyADC                                              0     0      0       0
 ---------------------------------------------------------------------------------
 (1) _Delay1KTCYx                                          1     1      0      15
                                             18 COMRAM     1     1      0
 ---------------------------------------------------------------------------------
 (1) _ConfigUSART                                          0     0      0     491
                         _Open1USART
                        _putrs1USART
 ---------------------------------------------------------------------------------
 (1) _putrs1USART                                          2     0      2     218
                                             19 COMRAM     2     0      2
                        _Write1USART
 ---------------------------------------------------------------------------------
 (2) _Write1USART                                          1     1      0      15
                                             18 COMRAM     1     1      0
 ---------------------------------------------------------------------------------
 (2) _Open1USART                                           3     1      2     273
                                             18 COMRAM     3     1      2
 ---------------------------------------------------------------------------------
 (1) _ConfigTimer0                                         0     0      0     149
                        _WriteTimer0
 ---------------------------------------------------------------------------------
 (2) _WriteTimer0                                          4     2      2     149
                                             18 COMRAM     4     2      2
 ---------------------------------------------------------------------------------
 (1) _ConfigInterrupts                                     0     0      0       0
 ---------------------------------------------------------------------------------
 (1) _ConfigIO                                             0     0      0       0
 ---------------------------------------------------------------------------------
 (1) _ConfigADC                                            0     0      0     260
                            _OpenADC
 ---------------------------------------------------------------------------------
 (2) _OpenADC                                              5     3      2     260
                                             18 COMRAM     5     3      2
 ---------------------------------------------------------------------------------
 (1) _ChangeMode                                           0     0      0      15
                       _Delay10KTCYx
 ---------------------------------------------------------------------------------
 (1) _Delay10KTCYx                                         2     2      0      15
                                             18 COMRAM     2     2      0
 ---------------------------------------------------------------------------------
 Estimated maximum stack depth 2
 ---------------------------------------------------------------------------------
 (Depth) Function   	        Calls       Base Space   Used Autos Params    Refs
 ---------------------------------------------------------------------------------
 (4) _isr                                                 14    14      0     140
                                              4 COMRAM    14    14      0
                         _ReadTimer0
                      i2_WriteTimer0
 ---------------------------------------------------------------------------------
 (5) i2_WriteTimer0                                        4     2      2      93
                                              0 COMRAM     4     2      2
 ---------------------------------------------------------------------------------
 (5) _ReadTimer0                                           4     2      2      47
                                              0 COMRAM     4     2      2
 ---------------------------------------------------------------------------------
 Estimated maximum stack depth 5
 ---------------------------------------------------------------------------------

 Call Graph Graphs:

 _main (ROOT)
   _ChangeMode
     _Delay10KTCYx
   _ConfigADC
     _OpenADC
   _ConfigIO
   _ConfigInterrupts
   _ConfigTimer0
     _WriteTimer0
   _ConfigUSART
     _Open1USART
     _putrs1USART
       _Write1USART
   _Delay10KTCYx
   _Delay1KTCYx
   _GetADCReading
     _BusyADC
     _ConvertADC
     _ReadADC
     _SetChanADC
   _GetDistance
     _Delay1TCYx
   _SelectLED
   ___ftmul
     ___ftpack
     ___lwtoft (ARG)
       ___ftpack
   ___fttol
   ___lwtoft
     ___ftpack
   _putrs1USART
     _Write1USART
   _puts1USART
     _Write1USART
   _sprintf
     ___fttol (ARG)
     ___lwdiv (ARG)
     ___lwmod (ARG)
       ___lwdiv (ARG)

 _isr (ROOT)
   _ReadTimer0
   i2_WriteTimer0

 Address spaces:
Name               Size   Autos  Total    Cost      Usage
BIGRAM             EEE      0       0      38        0.0%
EEDATA             400      0       0       0        0.0%
BITBANK13          100      0       0      31        0.0%
BANK13             100      0       0      32        0.0%
BITBANK12          100      0       0      29        0.0%
BANK12             100      0       0      30        0.0%
BITBANK11          100      0       0      27        0.0%
BANK11             100      0       0      28        0.0%
BITBANK10          100      0       0      25        0.0%
BANK10             100      0       0      26        0.0%
BITBANK9           100      0       0      23        0.0%
BANK9              100      0       0      24        0.0%
BITBANK8           100      0       0      21        0.0%
BANK8              100      0       0      22        0.0%
BITBANK7           100      0       0      19        0.0%
BANK7              100      0       0      20        0.0%
BITBANK6           100      0       0      17        0.0%
BANK6              100      0       0      18        0.0%
BITBANK5           100      0       0      15        0.0%
BANK5              100      0       0      16        0.0%
BITBANK4           100      0       0      13        0.0%
BANK4              100      0       0      14        0.0%
BITBANK3           100      0       0      11        0.0%
BANK3              100      0       0      12        0.0%
BITBANK2           100      0       0       9        0.0%
BANK2              100      0       0      10        0.0%
BITBANK1           100      0       0       7        0.0%
BANK1              100      0       0       8        0.0%
BITBANK14           EF      0       0      33        0.0%
BANK14              EF      0       0      34        0.0%
BITBANK0            A0      0       0       4        0.0%
BANK0               A0      7       7       5        4.4%
BITBANK15           60      0       0      35        0.0%
BANK15              60      0       0      36        0.0%
BIGRAM_1            60      0       0      37        0.0%
BITCOMRAM           5F      0       0       0        0.0%
COMRAM              5F     2E      4D       1       81.1%
BITSFR_5             0      0       0      40        0.0%
SFR_5                0      0       0      40        0.0%
BITSFR_4             0      0       0      40        0.0%
SFR_4                0      0       0      40        0.0%
BITSFR_3             0      0       0      40        0.0%
SFR_3                0      0       0      40        0.0%
BITSFR_2             0      0       0      40        0.0%
SFR_2                0      0       0      40        0.0%
BITSFR_1             0      0       0      40        0.0%
SFR_1                0      0       0      40        0.0%
BITSFR               0      0       0      40        0.0%
SFR                  0      0       0      40        0.0%
STACK                0      0       0       2        0.0%
NULL                 0      0       0       0        0.0%
ABS                  0      0      54       6        0.0%
DATA                 0      0      54       3        0.0%
CODE                 0      0       0       0        0.0%


Microchip Technology PIC18 Macro Assembler V1.34 build -361300703 
Symbol Table                                                                                   Thu Mar 09 00:02:46 2017

                        _i 0042                __CFG_BORV$0 000000               __CFG_CP0$OFF 000000  
             __CFG_CP1$OFF 000000               __CFG_CP2$OFF 000000               __CFG_CP3$OFF 000000  
              __CFG_OSC$HS 000000               __CFG_CP4$OFF 000000               __CFG_CP5$OFF 000000  
      __end_of_GetDistance 1A26               __CFG_CP6$OFF 000000               __CFG_CP7$OFF 000000  
                      l112 1728                        l203 17F6                        l211 1A8E  
                      l125 18DE                        l252 1756                        l261 179A  
                      l181 1ABC                        l256 1772                        l176 1204  
                      l281 1918                        l258 177E                        l259 1780  
                      l531 1A36                        l524 19BE                        l269 18E2  
                      l536 1AC0                        l538 1AC8                        l715 1444  
                      l628 15F0                        l639 15C8                        l736 152A  
                      l915 19E6                        l838 184C                        l848 1898  
                      l865 198A                        l999 19AA               __CFG_CPB$OFF 000000  
                      u160 1AB8               __CFG_CPD$OFF 000000       __size_of_WriteTimer0 0012  
              _putrs1USART 18E0                        _isr 0008                        prod 000FF3  
                      wreg 000FE8                 _TXSTA1bits 000FAC               __CFG_MODE$MC 000000  
          ReadTimer0@timer 0003               __CFG_LVP$OFF 000000                 _Delay1TCYx 1ABE  
             __CFG_WDT$OFF 000000                 _ChangeMode 193E                       l1131 18AA  
                     l2011 133E                       l1133 18AE                       l1141 18BC  
                     l1135 18B2                       l1137 18B6                       l1129 18A6  
                     l1163 1A28                       l1501 1578                       l1441 1746  
                     l1521 15E2                       l1505 1590                       l1515 15D0  
                     l1507 15B0                       l1461 1776                       l1453 1762  
                     l1445 174E                       l1437 173C                       l1509 15BC  
                     l1703 13F0                       l1457 176A                       l1449 175A  
                     l1713 141E                       l1705 13F6                       l1723 1464  
                     l1581 16B2                       l1493 153C                       l1709 1408  
                     l1741 14BE                       l1901 108A                       l1583 16BA  
                     l1751 14E8                       l1585 16C2                       l1577 16A2  
                     l1497 154C                       l1681 1394                       l1753 14F6  
                     l1745 14CE                       l1905 109A                       l1587 16CA  
                     l1579 16AA                       l1595 16DE                       l1499 1558  
                     l1675 136C                       l1747 14D4                       l1755 1500  
                     l1931 1142                       l1923 110C                       l1907 10C6  
                     l1589 16D2                       l1597 1706                       l1677 1386  
                     l1861 1810                       l1917 10F8                       l1599 170C  
                     l1695 13C8                       l1759 1518                       l1863 181A  
                     l1927 113C                       l1919 10FE                       l1873 1840  
                     l1865 1822                       l1881 1864                       l1945 11C4  
                     l1937 1160                       l1699 13DA                       l1883 186E  
                     l1939 1166                       l1947 11D4                       l1963 121C  
                     l1885 1876                       l1949 11F6                       l1981 1284  
                     l1973 123C                       l1965 122A                       l1895 106E  
                     l1983 1294                       l1889 188C                       l1993 12B8  
                     l1969 1234                       l1987 12A0                       ?_isr 0001  
                     STR_1 1027                       STR_2 1042                       STR_3 100B  
                     STR_4 1057                       u1101 1456                       u1120 1482  
                     u1041 135E                       u1061 137C                       u1125 147A  
                     _LATE 000F8D                       _LATJ 000F91                       u1487 1A2A  
                     u1497 19B0                       i2l85 1664                       _main 1206  
             ___ftpack@arg 0013                       _mode 0043               ___ftpack@exp 0016  
                     fsr0h 000FEA                       fsr1h 000FE2                       fsr0l 000FE9  
                     fsr2h 000FDA                       fsr1l 000FE1                       indf2 000FDF  
                     fsr2l 000FD9     __size_ofi2_WriteTimer0 0012                       pclat 000FFA  
                     prodh 000FF4                       prodl 000FF3                       start 0018  
            __CFG_IESO$OFF 000000        __end_of_ConfigUSART 19A8              __CFG_MCLRE$ON 000000  
             ___ftmul@cntr 002B               ___param_bank 000010               ___ftmul@sign 002C  
          __end_of_BusyADC 1ABE            __end_of_ReadADC 1A90            __end_of_OpenADC 17FA  
             ___fttol@exp1 0021               ___fttol@lval 001D                      ??_isr 0005  
              _Delay1KTCYx 1A26              __CFG_WAIT$OFF 000000                      ?_main 0001  
          __end_of___ftmul 1446                      _T0CON 000FD5            __end_of___fttol 152C  
          __end_of___lwdiv 1856            __end_of___lwmod 18A2                      _TMR0H 000FD7  
                    _TMR0L 000FD6                      _TRISA 000F92                      _TRISB 000F93  
                    _TRISE 000F96                      _TRISJ 000F9A      __size_of_Delay10KTCYx 0018  
            __CFG_PWRT$OFF 000000              __CFG_WRT0$OFF 000000              __CFG_WRT1$OFF 000000  
            __CFG_WRT2$OFF 000000              __CFG_WRT3$OFF 000000              __CFG_WRT4$OFF 000000  
            __CFG_WRT5$OFF 000000              __CFG_WRT6$OFF 000000              __CFG_WRT7$OFF 000000  
           __CFG_EBTR0$OFF 000000             __CFG_FCMEN$OFF 000000             __CFG_EBTR1$OFF 000000  
           __CFG_EBTR2$OFF 000000             __CFG_EBTR3$OFF 000000             __CFG_EBTR4$OFF 000000  
           __CFG_EBTR5$OFF 000000             __CFG_EBTR6$OFF 000000             __CFG_EBTR7$OFF 000000  
            __CFG_WRTB$OFF 000000              __CFG_WRTC$OFF 000000              __CFG_WRTD$OFF 000000  
           __CFG_EBTRB$OFF 000000            __end_of_dpowers 100B              ___ftpack@sign 0017  
               _ConvertADC 1ACA             __CFG_BOREN$OFF 000000                      tablat 000FF5  
                    status 000FD8            __end_of_sprintf 1206     __size_of_GetADCReading 008C  
         __end_of_ConfigIO 1A02            __initialization 1A02                _GetDistance 1A14  
     __end_of_ConfigTimer0 1A4A               __end_of_main 134E             puts1USART@data 0014  
               _ReadTimer0 1A6E               _Delay10KTCYx 19A8                 _Open1USART 172A  
                   ??_main 002D              ___fttol@sign1 001C              i2_WriteTimer0 1A5C  
            __activetblptr 000003                 _SetChanADC 19C0         __size_of_ConfigADC 0010  
 __end_of_ConfigInterrupts 1AA0                     _ADCON0 000FC2                     _ADCON1 000FC1  
                   _ADCON2 000FC0                     _ADRESH 000FC4                     _ADRESL 000FC3  
              ?_Delay1TCYx 0001                ?_ChangeMode 0001           __end_of___ftpack 15F2  
          __CFG_BBSIZ$BB2K 000000                _ConfigUSART 198C                     i2l1775 162C  
                   i2l1785 164A           __end_of___lwtoft 198C                     _RCSTA1 000FAB  
                   _SPBRG1 000FAF                  ??_BusyADC 0013                     _TXREG1 000FAD  
                ??_ReadADC 0015                     _TXSTA1 000FAC                  ??_OpenADC 0015  
           __CFG_XINST$OFF 000000         __size_of_SelectLED 003E                  ??___ftmul 0024  
                ??___fttol 0017                  ??___lwdiv 0017                  ??___lwmod 001E  
                   _buffer 0044                     clear_0 1A08             ?i2_WriteTimer0 0001  
    ___ftmul@f3_as_product 0028              _GetADCReading 169E               __mediumconst 0000  
                   tblptrh 000FF7                     tblptrl 000FF6                     tblptru 000FF8  
                ??_sprintf 0028                ?_ConvertADC 0001                 __accesstop 0060  
  __end_of__initialization 1A0E              ___rparam_used 000001          __end_of_ConfigADC 1AB0  
               ___ftmul@f1 001E                 ___ftmul@f2 0021                 ___fttol@f1 0013  
           __pcstackCOMRAM 0001                ?_ReadTimer0 0001        __size_of_Delay1TCYx 000C  
      __size_of_ChangeMode 0028                ?_Open1USART 0013                 ___lwtoft@c 001B  
           ?_GetADCReading 0017               ?_putrs1USART 0014                ?_SetChanADC 0001  
                ?_ConfigIO 0001          __end_of_SelectLED 18E0              ??_Write1USART 0013  
    __size_of_ConfigTimer0 0012                 _echo_ready 0041            ??i2_WriteTimer0 0003  
             ?_Delay1KTCYx 0001           WriteTimer0@timer 0015              ??_WriteTimer0 0015  
      __size_of_ConvertADC 0004                  ?___ftpack 0013                  ?___lwtoft 001B  
         Open1USART@config 0015                    _SPBRGH1 000F7F                 ??_ConfigIO 0013  
             _ConfigTimer0 1A38        __size_of_ReadTimer0 0012        __size_of_Open1USART 0072  
                  _BusyADC 1AB0                    _ReadADC 1A80        i2WriteTimer0@timer0 0001  
                  _OpenADC 179C                    __Hparam 0000        __size_of_SetChanADC 0016  
                  __Lparam 0000        __end_of_Write1USART 19EC               ?_GetDistance 0001  
                  ___ftmul 134E                    ___fttol 1446                    ___lwdiv 17FA  
                  ___lwmod 1856               __psmallconst 1000            __CFG_STVREN$OFF 000000  
                  __pcinit 1A02                 ??___ftpack 0018                    __ramtop 1000  
          ??_GetADCReading 0019                    __ptext0 1206                    __ptext1 1060  
                  __ptext2 1856                    __ptext3 17FA                    __ptext4 1916  
                  __ptext5 1966                    __ptext6 1446                    __ptext7 134E  
                  __ptext8 152C                    __ptext9 18A2                    _dist_cm 0039  
               ??___lwtoft 001E                  _T0CONbits 000FD5                    _dpowers 1001  
             __size_of_isr 1696        __end_of_WriteTimer0 1A5C                    _sensors 002F  
        ?_ConfigInterrupts 0001               ??_Delay1TCYx 0013             OpenADC@config2 0013  
                  _sprintf 1060               ??_ChangeMode 0015             __pintcode_body 15F2  
     end_of_initialization 1A0E         ??_ConfigInterrupts 0013               ?_ConfigUSART 0001  
                  int_func 15F2                    postdec2 000FDD                    postinc0 000FEE  
                  postinc2 000FDE               _dist_cm_tens 003F         __end_of_Delay1TCYx 1ACA  
       __end_of_ChangeMode 1966                  _PORTBbits 000F81                 _puts1USART 1916  
                _TRISCbits 000F94       __size_of_putrs1USART 0036               ??_ConvertADC 0013  
              _Write1USART 19D6                ___ftmul@exp 0027               ??_ReadTimer0 0003  
                _ConfigADC 1AA0               SelectLED@sel 0013               ??_Open1USART 0015  
              _WriteTimer0 1A4A         __end_of_ConvertADC 1ACE       __size_of_Delay1KTCYx 0012  
             ??_SetChanADC 0013        start_initialization 1A02                __end_of_isr 169E  
       __end_of_ReadTimer0 1A80          __size_of_ConfigIO 0016                  _SelectLED 18A2  
       __end_of_Open1USART 179C         __end_of_SetChanADC 19D6                 ?_ConfigADC 0001  
         __CFG_LPT1OSC$OFF 000000       __size_of_GetDistance 0012                ?_puts1USART 0014  
        __size_of___ftpack 00C6                __pbssCOMRAM 002F          __size_of___lwtoft 0026  
            __pcstackBANK0 0060            Delay1KTCYx@unit 0013                sprintf@flag 0062  
              sprintf@prec 0063                 ?_SelectLED 0001                   ?_BusyADC 0001  
     __size_of_ConfigUSART 001C                   ?_ReadADC 0013          OpenADC@portconfig 0014  
                 ?_OpenADC 0013                  _echo_time 004C           ___lwdiv@dividend 0013  
        __CFG_CCP2MX$PORTC 000000                  __pintcode 0008                   ?___ftmul 001E  
                 ?___fttol 0013              ?_Delay10KTCYx 0001                   ?___lwdiv 0013  
                 ?___lwmod 001A            Open1USART@spbrg 0013      __end_ofi2_WriteTimer0 1A6E  
              __smallconst 1000          WriteTimer0@timer0 0013         i2WriteTimer0@timer 0003  
         ___lwdiv@quotient 0018                   ?_sprintf 0022            Write1USART@data 0013  
            OpenADC@config 0017                   _LATEbits 000F8D                   _LATJbits 000F91  
                 _PIE1bits 000F9D        __size_of_puts1USART 0028                   _PIR1bits 000F9E  
    __CFG_DATABW$DATA16BIT 000000  __size_of_ConfigInterrupts 0010                   _RCONbits 000FD0  
         __CFG_WDTPS$32768 000000             ??_Delay10KTCYx 0013                ??_ConfigADC 0018  
                _threshold 003C          __CFG_ECCPMX$PORTH 000000                 _ADCON0bits 000FC2  
    __end_of_GetADCReading 172A           Delay10KTCYx@unit 0014                   _ConfigIO 19EC  
              _INTCON2bits 000FF1                _INTCON3bits 000FF0               ?_Write1USART 0001  
              ??_SelectLED 0013           __size_of_BusyADC 000E           __size_of_ReadADC 0010  
                 __Hrparam 0000           __size_of_OpenADC 005E                   __Lrparam 0000  
         __size_of___ftmul 00F8           __size_of___fttol 00E6           __size_of___lwdiv 005C  
         __size_of___lwmod 004C               ?_WriteTimer0 0013                   ___ftpack 152C  
                 ___lwtoft 1966              ??_putrs1USART 0016                 sprintf@val 0064  
          ___lwdiv@divisor 0015            ___lwdiv@counter 0017                   __ptext10 1A14  
                 __ptext11 1ABE                   __ptext20 19D6                   __ptext12 169E  
                 __ptext21 172A                   __ptext13 19C0                   __ptext22 1A38  
                 __ptext14 1A80                   __ptext31 1A5C                   __ptext23 1A4A  
                 __ptext15 1ACA                   __ptext32 1A6E                   __ptext24 1A90  
                 __ptext16 1AB0                   __ptext25 19EC                   __ptext17 1A26  
                 __ptext26 1AA0                   __ptext18 198C                   __ptext27 179C  
                 __ptext19 18E0                   __ptext28 193E                   __ptext29 19A8  
         __size_of_sprintf 01A6              __size_of_main 0148             Delay1TCYx@unit 0013  
     GetADCReading@channel 0019              ??_Delay1KTCYx 0013               ??_puts1USART 0016  
            _USART1_Status 003E            putrs1USART@data 0014      __CFG_ADDRBW$ADDR20BIT 000000  
               _INTCONbits 000FF2              ?_ConfigTimer0 0001        __end_of_putrs1USART 1916  
     __end_of_Delay10KTCYx 19C0                   intlevel2 0000                  sprintf@ap 0060  
                sprintf@sp 0022           ___lwmod@dividend 001A          SetChanADC@channel 0014  
               _RCSTA1bits 000FAB         __end_of_puts1USART 193E           _ConfigInterrupts 1A90  
            ??_GetDistance 0014              _dist_cm_units 0040                   sprintf@c 0066  
                 sprintf@f 0024            ___lwmod@divisor 001C        __end_of_Delay1KTCYx 1A38  
          ___lwmod@counter 001E             ??_ConfigTimer0 0017              ??_ConfigUSART 0016  
     __size_of_Write1USART 0016  
