

Microchip Technology PIC18 LITE Macro Assembler V1.38 build -256452561 
                                                                                               Tue Feb 14 17:07:46 2017

Microchip Technology Omniscient Code Generator v1.38 (Free mode) build 201607010351
     1                           	processor	18F8722
     2                           	fnconf	rparam,??,?,0
     3                           	opt	pw 120
     4                           	opt	lm
     5                           	psect	cinit,global,reloc=2,class=CODE,delta=1
     6                           	psect	cstackCOMRAM,global,class=COMRAM,space=1,delta=1
     7                           	psect	text0,global,reloc=2,class=CODE,delta=1
     8                           	psect	text1,global,reloc=2,class=CODE,delta=1
     9                           	psect	text2,global,reloc=2,class=CODE,delta=1
    10                           	psect	text3,global,reloc=2,class=CODE,delta=1
    11                           	psect	text4,global,reloc=2,class=CODE,delta=1
    12                           	psect	text5,global,reloc=2,class=CODE,delta=1
    13                           	psect	text6,global,reloc=2,class=CODE,delta=1
    14                           	psect	intsave_regs,global,class=BIGRAM,space=1,delta=1
    15                           	psect	rparam,global,class=COMRAM,space=1,delta=1
    16  0000                     _CCP4CON	set	3955
    17  0000                     _CCP4CONbits	set	3955
    18  0000                     _CCP5CON	set	3952
    19  0000                     _CCP5CONbits	set	3952
    20  0000                     _CCPR4L	set	3956
    21  0000                     _CCPR5L	set	3953
    22  0000                     _LATAbits	set	3977
    23  0000                     _LATDbits	set	3980
    24  0000                     _LATF	set	3982
    25  0000                     _LATHbits	set	3984
    26  0000                     _PIE1bits	set	3997
    27  0000                     _PORTJbits	set	3976
    28  0000                     _PR2	set	4043
    29  0000                     _T2CONbits	set	4042
    30  0000                     _TRISA	set	3986
    31  0000                     _TRISC	set	3988
    32  0000                     _TRISD	set	3989
    33  0000                     _TRISF	set	3991
    34  0000                     _TRISGbits	set	3992
    35  0000                     _TRISH	set	3993
    36  0000                     _TRISJ	set	3994
    37                           
    38                           ; #config settings
    39  0000                     
    40                           	psect	cinit
    41  01FCA4                     __pcinit:
    42                           	opt stack 0
    43  01FCA4                     start_initialization:
    44                           	opt stack 0
    45  01FCA4                     __initialization:
    46                           	opt stack 0
    47  01FCA4                     end_of_initialization:
    48                           	opt stack 0
    49  01FCA4                     __end_of__initialization:
    50                           	opt stack 0
    51  01FCA4  0100               	movlb	0
    52  01FCA6  EFB2  F0FE         	goto	_main	;jump to C main() function
    53                           
    54                           	psect	cstackCOMRAM
    55  000001                     __pcstackCOMRAM:
    56                           	opt stack 0
    57  000001                     ??_Delay10KTCYx:
    58  000001                     Delay1KTCYx@unit:
    59                           	opt stack 0
    60  000001                     SetDCPWM4@dutycycle:
    61                           	opt stack 0
    62  000001                     SetDCPWM5@dutycycle:
    63                           	opt stack 0
    64                           
    65                           ; 2 bytes @ 0x0
    66  000001                     	ds	1
    67  000002                     Delay10KTCYx@unit:
    68                           	opt stack 0
    69                           
    70                           ; 1 bytes @ 0x1
    71  000002                     	ds	1
    72  000003                     ??_SetDCPWM4:
    73  000003                     ??_SetDCPWM5:
    74                           
    75                           ; 1 bytes @ 0x2
    76  000003                     	ds	2
    77  000005                     SetDCPWM4@DCycle:
    78                           	opt stack 0
    79  000005                     SetDCPWM5@DCycle:
    80                           	opt stack 0
    81                           
    82                           ; 2 bytes @ 0x4
    83  000005                     	ds	2
    84  000007                     main@duty_cycle:
    85                           	opt stack 0
    86                           
    87                           ; 2 bytes @ 0x6
    88  000007                     	ds	2
    89                           
    90 ;;
    91 ;;Main: autosize = 0, tempsize = 0, incstack = 0, save=0
    92 ;;
    93 ;; *************** function _main *****************
    94 ;; Defined at:
    95 ;;		line 32 in file "TechDemo2_Test_Routine.c"
    96 ;; Parameters:    Size  Location     Type
    97 ;;		None
    98 ;; Auto vars:     Size  Location     Type
    99 ;;  duty_cycle      2    6[COMRAM] unsigned int 
   100 ;; Return value:  Size  Location     Type
   101 ;;                  1    wreg      void 
   102 ;; Registers used:
   103 ;;		wreg, status,2, status,0, cstack
   104 ;; Tracked objects:
   105 ;;		On entry : 0/0
   106 ;;		On exit  : 0/0
   107 ;;		Unchanged: 0/0
   108 ;; Data sizes:     COMRAM   BANK0   BANK1   BANK2   BANK3   BANK4   BANK5   BANK6   BANK7   BANK8   BANK9  BANK10  BANK1
      +1  BANK12  BANK13  BANK14  BANK15
   109 ;;      Params:         0       0       0       0       0       0       0       0       0       0       0       0       
      +0       0       0       0       0
   110 ;;      Locals:         2       0       0       0       0       0       0       0       0       0       0       0       
      +0       0       0       0       0
   111 ;;      Temps:          0       0       0       0       0       0       0       0       0       0       0       0       
      +0       0       0       0       0
   112 ;;      Totals:         2       0       0       0       0       0       0       0       0       0       0       0       
      +0       0       0       0       0
   113 ;;Total ram usage:        2 bytes
   114 ;; Hardware stack levels required when called:    1
   115 ;; This function calls:
   116 ;;		_ConfigPWM
   117 ;;		_Delay10KTCYx
   118 ;;		_Delay1KTCYx
   119 ;;		_SetDCPWM4
   120 ;;		_SetDCPWM5
   121 ;;		_StartTimer2
   122 ;; This function is called by:
   123 ;;		Startup code after reset
   124 ;; This function uses a non-reentrant model
   125 ;;
   126                           
   127                           	psect	text0
   128  01FD64                     __ptext0:
   129                           	opt stack 0
   130  01FD64                     _main:
   131                           	opt stack 30
   132                           
   133                           ;TechDemo2_Test_Routine.c: 34: unsigned int duty_cycle = 0;
   134                           
   135                           ;incstack = 0
   136  01FD64  0E00               	movlw	0
   137  01FD66  6E08               	movwf	main@duty_cycle+1,c
   138  01FD68  0E00               	movlw	0
   139  01FD6A  6E07               	movwf	main@duty_cycle,c
   140                           
   141                           ;TechDemo2_Test_Routine.c: 37: TRISD = 0xE0;
   142  01FD6C  0EE0               	movlw	224
   143  01FD6E  6E95               	movwf	3989,c	;volatile
   144                           
   145                           ;TechDemo2_Test_Routine.c: 38: TRISGbits.RG3 = 0;
   146  01FD70  9698               	bcf	3992,3,c	;volatile
   147                           
   148                           ;TechDemo2_Test_Routine.c: 39: TRISGbits.RG4 = 0;
   149  01FD72  9898               	bcf	3992,4,c	;volatile
   150                           
   151                           ;TechDemo2_Test_Routine.c: 42: TRISF = 0x00;
   152  01FD74  0E00               	movlw	0
   153  01FD76  6E97               	movwf	3991,c	;volatile
   154                           
   155                           ;TechDemo2_Test_Routine.c: 43: TRISA = 0xEF;
   156  01FD78  0EEF               	movlw	239
   157  01FD7A  6E92               	movwf	3986,c	;volatile
   158                           
   159                           ;TechDemo2_Test_Routine.c: 44: TRISH = 0xFC;
   160  01FD7C  0EFC               	movlw	252
   161  01FD7E  6E99               	movwf	3993,c	;volatile
   162                           
   163                           ;TechDemo2_Test_Routine.c: 45: TRISC = 0xFF;
   164  01FD80  6894               	setf	3988,c	;volatile
   165                           
   166                           ;TechDemo2_Test_Routine.c: 46: TRISJ = 0xBF;
   167  01FD82  0EBF               	movlw	191
   168  01FD84  6E9A               	movwf	3994,c	;volatile
   169                           
   170                           ;TechDemo2_Test_Routine.c: 48: LATF = 0x00;
   171  01FD86  0E00               	movlw	0
   172  01FD88  6E8E               	movwf	3982,c	;volatile
   173                           
   174                           ;TechDemo2_Test_Routine.c: 49: LATAbits.LATA4 = 0;
   175  01FD8A  9889               	bcf	3977,4,c	;volatile
   176                           
   177                           ;TechDemo2_Test_Routine.c: 50: LATHbits.LATH0 = 1;
   178  01FD8C  8090               	bsf	3984,0,c	;volatile
   179                           
   180                           ;TechDemo2_Test_Routine.c: 51: LATHbits.LATH1 = 1;
   181  01FD8E  8290               	bsf	3984,1,c	;volatile
   182                           
   183                           ;TechDemo2_Test_Routine.c: 53: LATDbits.LATD4 = 0;
   184  01FD90  988C               	bcf	3980,4,c	;volatile
   185                           
   186                           ;TechDemo2_Test_Routine.c: 54: LATAbits.LATA4 = 1;
   187  01FD92  8889               	bsf	3977,4,c	;volatile
   188                           
   189                           ;TechDemo2_Test_Routine.c: 56: StartTimer2();
   190  01FD94  EC55  F0FE         	call	_StartTimer2	;wreg free
   191                           
   192                           ;TechDemo2_Test_Routine.c: 57: ConfigPWM();
   193  01FD98  EC64  F0FE         	call	_ConfigPWM	;wreg free
   194                           
   195                           ;TechDemo2_Test_Routine.c: 59: SetDCPWM4(526);
   196  01FD9C  0E02               	movlw	2
   197  01FD9E  6E02               	movwf	SetDCPWM4@dutycycle+1,c
   198  01FDA0  0E0E               	movlw	14
   199  01FDA2  6E01               	movwf	SetDCPWM4@dutycycle,c
   200  01FDA4  EC78  F0FE         	call	_SetDCPWM4	;wreg free
   201                           
   202                           ;TechDemo2_Test_Routine.c: 60: SetDCPWM5(526);
   203  01FDA8  0E02               	movlw	2
   204  01FDAA  6E02               	movwf	SetDCPWM5@dutycycle+1,c
   205  01FDAC  0E0E               	movlw	14
   206  01FDAE  6E01               	movwf	SetDCPWM5@dutycycle,c
   207  01FDB0  EC95  F0FE         	call	_SetDCPWM5	;wreg free
   208                           
   209                           ;TechDemo2_Test_Routine.c: 62: LATDbits.LATD4 = 1;
   210  01FDB4  888C               	bsf	3980,4,c	;volatile
   211                           
   212                           ;TechDemo2_Test_Routine.c: 63: LATDbits.LATD0 = 0;
   213  01FDB6  908C               	bcf	3980,0,c	;volatile
   214                           
   215                           ;TechDemo2_Test_Routine.c: 64: LATDbits.LATD2 = 0;
   216  01FDB8  948C               	bcf	3980,2,c	;volatile
   217  01FDBA                     l919:
   218                           
   219                           ;TechDemo2_Test_Routine.c: 68: if(PORTJbits.RJ5 == 0) {
   220  01FDBA  BA88               	btfsc	3976,5,c	;volatile
   221  01FDBC  D7FE               	goto	l919
   222                           
   223                           ;TechDemo2_Test_Routine.c: 71: LATDbits.LATD1 = 1;
   224  01FDBE  828C               	bsf	3980,1,c	;volatile
   225                           
   226                           ;TechDemo2_Test_Routine.c: 72: LATDbits.LATD3 = 1;
   227  01FDC0  868C               	bsf	3980,3,c	;volatile
   228                           
   229                           ;TechDemo2_Test_Routine.c: 74: for(duty_cycle = 500; duty_cycle > 263; duty_cycle--) {
   230  01FDC2  0E01               	movlw	1
   231  01FDC4  6E08               	movwf	main@duty_cycle+1,c
   232  01FDC6  0EF4               	movlw	244
   233  01FDC8  6E07               	movwf	main@duty_cycle,c
   234  01FDCA                     l925:
   235  01FDCA  0E08               	movlw	8
   236  01FDCC  5C07               	subwf	main@duty_cycle,w,c
   237  01FDCE  0E01               	movlw	1
   238  01FDD0  5808               	subwfb	main@duty_cycle+1,w,c
   239  01FDD2  A0D8               	btfss	status,0,c
   240  01FDD4  D013               	goto	l935
   241                           
   242                           ;TechDemo2_Test_Routine.c: 75: SetDCPWM4(duty_cycle);
   243  01FDD6  C007  F001         	movff	main@duty_cycle,SetDCPWM4@dutycycle
   244  01FDDA  C008  F002         	movff	main@duty_cycle+1,SetDCPWM4@dutycycle+1
   245  01FDDE  EC78  F0FE         	call	_SetDCPWM4	;wreg free
   246                           
   247                           ;TechDemo2_Test_Routine.c: 76: SetDCPWM5(duty_cycle);
   248  01FDE2  C007  F001         	movff	main@duty_cycle,SetDCPWM5@dutycycle
   249  01FDE6  C008  F002         	movff	main@duty_cycle+1,SetDCPWM5@dutycycle+1
   250  01FDEA  EC95  F0FE         	call	_SetDCPWM5	;wreg free
   251                           
   252                           ;TechDemo2_Test_Routine.c: 77: Delay1KTCYx(20);
   253  01FDEE  0E14               	movlw	20
   254  01FDF0  EC5C  F0FE         	call	_Delay1KTCYx
   255  01FDF4  0607               	decf	main@duty_cycle,f,c
   256  01FDF6  A0D8               	btfss	status,0,c
   257  01FDF8  0608               	decf	main@duty_cycle+1,f,c
   258  01FDFA  D7E7               	goto	l925
   259  01FDFC                     l935:
   260                           
   261                           ;TechDemo2_Test_Routine.c: 78: }
   262                           ;TechDemo2_Test_Routine.c: 80: Delay10KTCYx(250);
   263  01FDFC  0EFA               	movlw	250
   264  01FDFE  EC6D  F0FE         	call	_Delay10KTCYx
   265                           
   266                           ;TechDemo2_Test_Routine.c: 81: Delay10KTCYx(250);
   267  01FE02  0EFA               	movlw	250
   268  01FE04  EC6D  F0FE         	call	_Delay10KTCYx
   269                           
   270                           ;TechDemo2_Test_Routine.c: 83: SetDCPWM4(526);
   271  01FE08  0E02               	movlw	2
   272  01FE0A  6E02               	movwf	SetDCPWM4@dutycycle+1,c
   273  01FE0C  0E0E               	movlw	14
   274  01FE0E  6E01               	movwf	SetDCPWM4@dutycycle,c
   275  01FE10  EC78  F0FE         	call	_SetDCPWM4	;wreg free
   276                           
   277                           ;TechDemo2_Test_Routine.c: 84: SetDCPWM5(526);
   278  01FE14  0E02               	movlw	2
   279  01FE16  6E02               	movwf	SetDCPWM5@dutycycle+1,c
   280  01FE18  0E0E               	movlw	14
   281  01FE1A  6E01               	movwf	SetDCPWM5@dutycycle,c
   282  01FE1C  EC95  F0FE         	call	_SetDCPWM5	;wreg free
   283                           
   284                           ;TechDemo2_Test_Routine.c: 86: Delay10KTCYx(250);
   285  01FE20  0EFA               	movlw	250
   286  01FE22  EC6D  F0FE         	call	_Delay10KTCYx
   287                           
   288                           ;TechDemo2_Test_Routine.c: 89: LATDbits.LATD1 = 0;
   289  01FE26  928C               	bcf	3980,1,c	;volatile
   290                           
   291                           ;TechDemo2_Test_Routine.c: 90: LATDbits.LATD3 = 0;
   292  01FE28  968C               	bcf	3980,3,c	;volatile
   293                           
   294                           ;TechDemo2_Test_Routine.c: 92: for(duty_cycle = 500; duty_cycle > 263; duty_cycle--) {
   295  01FE2A  0E01               	movlw	1
   296  01FE2C  6E08               	movwf	main@duty_cycle+1,c
   297  01FE2E  0EF4               	movlw	244
   298  01FE30  6E07               	movwf	main@duty_cycle,c
   299  01FE32                     l947:
   300  01FE32  0E08               	movlw	8
   301  01FE34  5C07               	subwf	main@duty_cycle,w,c
   302  01FE36  0E01               	movlw	1
   303  01FE38  5808               	subwfb	main@duty_cycle+1,w,c
   304  01FE3A  A0D8               	btfss	status,0,c
   305  01FE3C  D013               	goto	l957
   306                           
   307                           ;TechDemo2_Test_Routine.c: 93: SetDCPWM4(duty_cycle);
   308  01FE3E  C007  F001         	movff	main@duty_cycle,SetDCPWM4@dutycycle
   309  01FE42  C008  F002         	movff	main@duty_cycle+1,SetDCPWM4@dutycycle+1
   310  01FE46  EC78  F0FE         	call	_SetDCPWM4	;wreg free
   311                           
   312                           ;TechDemo2_Test_Routine.c: 94: SetDCPWM5(duty_cycle);
   313  01FE4A  C007  F001         	movff	main@duty_cycle,SetDCPWM5@dutycycle
   314  01FE4E  C008  F002         	movff	main@duty_cycle+1,SetDCPWM5@dutycycle+1
   315  01FE52  EC95  F0FE         	call	_SetDCPWM5	;wreg free
   316                           
   317                           ;TechDemo2_Test_Routine.c: 95: Delay1KTCYx(20);
   318  01FE56  0E14               	movlw	20
   319  01FE58  EC5C  F0FE         	call	_Delay1KTCYx
   320  01FE5C  0607               	decf	main@duty_cycle,f,c
   321  01FE5E  A0D8               	btfss	status,0,c
   322  01FE60  0608               	decf	main@duty_cycle+1,f,c
   323  01FE62  D7E7               	goto	l947
   324  01FE64                     l957:
   325                           
   326                           ;TechDemo2_Test_Routine.c: 96: }
   327                           ;TechDemo2_Test_Routine.c: 98: Delay10KTCYx(250);
   328  01FE64  0EFA               	movlw	250
   329  01FE66  EC6D  F0FE         	call	_Delay10KTCYx
   330                           
   331                           ;TechDemo2_Test_Routine.c: 99: Delay10KTCYx(250);
   332  01FE6A  0EFA               	movlw	250
   333  01FE6C  EC6D  F0FE         	call	_Delay10KTCYx
   334                           
   335                           ;TechDemo2_Test_Routine.c: 101: SetDCPWM4(526);
   336  01FE70  0E02               	movlw	2
   337  01FE72  6E02               	movwf	SetDCPWM4@dutycycle+1,c
   338  01FE74  0E0E               	movlw	14
   339  01FE76  6E01               	movwf	SetDCPWM4@dutycycle,c
   340  01FE78  EC78  F0FE         	call	_SetDCPWM4	;wreg free
   341                           
   342                           ;TechDemo2_Test_Routine.c: 102: SetDCPWM5(526);
   343  01FE7C  0E02               	movlw	2
   344  01FE7E  6E02               	movwf	SetDCPWM5@dutycycle+1,c
   345  01FE80  0E0E               	movlw	14
   346  01FE82  6E01               	movwf	SetDCPWM5@dutycycle,c
   347  01FE84  EC95  F0FE         	call	_SetDCPWM5	;wreg free
   348                           
   349                           ;TechDemo2_Test_Routine.c: 104: Delay10KTCYx(250);
   350  01FE88  0EFA               	movlw	250
   351  01FE8A  EC6D  F0FE         	call	_Delay10KTCYx
   352                           
   353                           ;TechDemo2_Test_Routine.c: 107: LATDbits.LATD1 = 1;
   354  01FE8E  828C               	bsf	3980,1,c	;volatile
   355                           
   356                           ;TechDemo2_Test_Routine.c: 108: LATDbits.LATD3 = 0;
   357  01FE90  968C               	bcf	3980,3,c	;volatile
   358                           
   359                           ;TechDemo2_Test_Routine.c: 110: for(duty_cycle = 500; duty_cycle > 263; duty_cycle--) {
   360  01FE92  0E01               	movlw	1
   361  01FE94  6E08               	movwf	main@duty_cycle+1,c
   362  01FE96  0EF4               	movlw	244
   363  01FE98  6E07               	movwf	main@duty_cycle,c
   364  01FE9A                     l969:
   365  01FE9A  0E08               	movlw	8
   366  01FE9C  5C07               	subwf	main@duty_cycle,w,c
   367  01FE9E  0E01               	movlw	1
   368  01FEA0  5808               	subwfb	main@duty_cycle+1,w,c
   369  01FEA2  A0D8               	btfss	status,0,c
   370  01FEA4  D013               	goto	l979
   371                           
   372                           ;TechDemo2_Test_Routine.c: 111: SetDCPWM4(duty_cycle);
   373  01FEA6  C007  F001         	movff	main@duty_cycle,SetDCPWM4@dutycycle
   374  01FEAA  C008  F002         	movff	main@duty_cycle+1,SetDCPWM4@dutycycle+1
   375  01FEAE  EC78  F0FE         	call	_SetDCPWM4	;wreg free
   376                           
   377                           ;TechDemo2_Test_Routine.c: 112: SetDCPWM5(duty_cycle);
   378  01FEB2  C007  F001         	movff	main@duty_cycle,SetDCPWM5@dutycycle
   379  01FEB6  C008  F002         	movff	main@duty_cycle+1,SetDCPWM5@dutycycle+1
   380  01FEBA  EC95  F0FE         	call	_SetDCPWM5	;wreg free
   381                           
   382                           ;TechDemo2_Test_Routine.c: 113: Delay1KTCYx(20);
   383  01FEBE  0E14               	movlw	20
   384  01FEC0  EC5C  F0FE         	call	_Delay1KTCYx
   385  01FEC4  0607               	decf	main@duty_cycle,f,c
   386  01FEC6  A0D8               	btfss	status,0,c
   387  01FEC8  0608               	decf	main@duty_cycle+1,f,c
   388  01FECA  D7E7               	goto	l969
   389  01FECC                     l979:
   390                           
   391                           ;TechDemo2_Test_Routine.c: 114: }
   392                           ;TechDemo2_Test_Routine.c: 116: Delay10KTCYx(250);
   393  01FECC  0EFA               	movlw	250
   394  01FECE  EC6D  F0FE         	call	_Delay10KTCYx
   395                           
   396                           ;TechDemo2_Test_Routine.c: 117: Delay10KTCYx(250);
   397  01FED2  0EFA               	movlw	250
   398  01FED4  EC6D  F0FE         	call	_Delay10KTCYx
   399                           
   400                           ;TechDemo2_Test_Routine.c: 119: SetDCPWM4(526);
   401  01FED8  0E02               	movlw	2
   402  01FEDA  6E02               	movwf	SetDCPWM4@dutycycle+1,c
   403  01FEDC  0E0E               	movlw	14
   404  01FEDE  6E01               	movwf	SetDCPWM4@dutycycle,c
   405  01FEE0  EC78  F0FE         	call	_SetDCPWM4	;wreg free
   406                           
   407                           ;TechDemo2_Test_Routine.c: 120: SetDCPWM5(526);
   408  01FEE4  0E02               	movlw	2
   409  01FEE6  6E02               	movwf	SetDCPWM5@dutycycle+1,c
   410  01FEE8  0E0E               	movlw	14
   411  01FEEA  6E01               	movwf	SetDCPWM5@dutycycle,c
   412  01FEEC  EC95  F0FE         	call	_SetDCPWM5	;wreg free
   413                           
   414                           ;TechDemo2_Test_Routine.c: 122: Delay10KTCYx(250);
   415  01FEF0  0EFA               	movlw	250
   416  01FEF2  EC6D  F0FE         	call	_Delay10KTCYx
   417                           
   418                           ;TechDemo2_Test_Routine.c: 125: LATDbits.LATD1 = 0;
   419  01FEF6  928C               	bcf	3980,1,c	;volatile
   420                           
   421                           ;TechDemo2_Test_Routine.c: 126: LATDbits.LATD3 = 1;
   422  01FEF8  868C               	bsf	3980,3,c	;volatile
   423                           
   424                           ;TechDemo2_Test_Routine.c: 128: for(duty_cycle = 500; duty_cycle > 263; duty_cycle--) {
   425  01FEFA  0E01               	movlw	1
   426  01FEFC  6E08               	movwf	main@duty_cycle+1,c
   427  01FEFE  0EF4               	movlw	244
   428  01FF00  6E07               	movwf	main@duty_cycle,c
   429  01FF02                     l991:
   430  01FF02  0E08               	movlw	8
   431  01FF04  5C07               	subwf	main@duty_cycle,w,c
   432  01FF06  0E01               	movlw	1
   433  01FF08  5808               	subwfb	main@duty_cycle+1,w,c
   434  01FF0A  A0D8               	btfss	status,0,c
   435  01FF0C  D013               	goto	l1001
   436                           
   437                           ;TechDemo2_Test_Routine.c: 129: SetDCPWM4(duty_cycle);
   438  01FF0E  C007  F001         	movff	main@duty_cycle,SetDCPWM4@dutycycle
   439  01FF12  C008  F002         	movff	main@duty_cycle+1,SetDCPWM4@dutycycle+1
   440  01FF16  EC78  F0FE         	call	_SetDCPWM4	;wreg free
   441                           
   442                           ;TechDemo2_Test_Routine.c: 130: SetDCPWM5(duty_cycle);
   443  01FF1A  C007  F001         	movff	main@duty_cycle,SetDCPWM5@dutycycle
   444  01FF1E  C008  F002         	movff	main@duty_cycle+1,SetDCPWM5@dutycycle+1
   445  01FF22  EC95  F0FE         	call	_SetDCPWM5	;wreg free
   446                           
   447                           ;TechDemo2_Test_Routine.c: 131: Delay1KTCYx(20);
   448  01FF26  0E14               	movlw	20
   449  01FF28  EC5C  F0FE         	call	_Delay1KTCYx
   450  01FF2C  0607               	decf	main@duty_cycle,f,c
   451  01FF2E  A0D8               	btfss	status,0,c
   452  01FF30  0608               	decf	main@duty_cycle+1,f,c
   453  01FF32  D7E7               	goto	l991
   454  01FF34                     l1001:
   455                           
   456                           ;TechDemo2_Test_Routine.c: 132: }
   457                           ;TechDemo2_Test_Routine.c: 134: Delay10KTCYx(250);
   458  01FF34  0EFA               	movlw	250
   459  01FF36  EC6D  F0FE         	call	_Delay10KTCYx
   460                           
   461                           ;TechDemo2_Test_Routine.c: 135: Delay10KTCYx(250);
   462  01FF3A  0EFA               	movlw	250
   463  01FF3C  EC6D  F0FE         	call	_Delay10KTCYx
   464                           
   465                           ;TechDemo2_Test_Routine.c: 137: SetDCPWM4(526);
   466  01FF40  0E02               	movlw	2
   467  01FF42  6E02               	movwf	SetDCPWM4@dutycycle+1,c
   468  01FF44  0E0E               	movlw	14
   469  01FF46  6E01               	movwf	SetDCPWM4@dutycycle,c
   470  01FF48  EC78  F0FE         	call	_SetDCPWM4	;wreg free
   471                           
   472                           ;TechDemo2_Test_Routine.c: 138: SetDCPWM5(526);
   473  01FF4C  0E02               	movlw	2
   474  01FF4E  6E02               	movwf	SetDCPWM5@dutycycle+1,c
   475  01FF50  0E0E               	movlw	14
   476  01FF52  6E01               	movwf	SetDCPWM5@dutycycle,c
   477  01FF54  EC95  F0FE         	call	_SetDCPWM5	;wreg free
   478                           
   479                           ;TechDemo2_Test_Routine.c: 140: Delay10KTCYx(250);
   480  01FF58  0EFA               	movlw	250
   481  01FF5A  EC6D  F0FE         	call	_Delay10KTCYx
   482                           
   483                           ;TechDemo2_Test_Routine.c: 143: LATDbits.LATD1 = 1;
   484  01FF5E  828C               	bsf	3980,1,c	;volatile
   485                           
   486                           ;TechDemo2_Test_Routine.c: 144: LATDbits.LATD3 = 0;
   487  01FF60  968C               	bcf	3980,3,c	;volatile
   488                           
   489                           ;TechDemo2_Test_Routine.c: 146: for(duty_cycle = 500; duty_cycle > 263; duty_cycle--) {
   490  01FF62  0E01               	movlw	1
   491  01FF64  6E08               	movwf	main@duty_cycle+1,c
   492  01FF66  0EF4               	movlw	244
   493  01FF68  6E07               	movwf	main@duty_cycle,c
   494  01FF6A                     l1013:
   495  01FF6A  0E08               	movlw	8
   496  01FF6C  5C07               	subwf	main@duty_cycle,w,c
   497  01FF6E  0E01               	movlw	1
   498  01FF70  5808               	subwfb	main@duty_cycle+1,w,c
   499  01FF72  A0D8               	btfss	status,0,c
   500  01FF74  D00D               	goto	l1023
   501                           
   502                           ;TechDemo2_Test_Routine.c: 147: SetDCPWM4(duty_cycle);
   503  01FF76  C007  F001         	movff	main@duty_cycle,SetDCPWM4@dutycycle
   504  01FF7A  C008  F002         	movff	main@duty_cycle+1,SetDCPWM4@dutycycle+1
   505  01FF7E  EC78  F0FE         	call	_SetDCPWM4	;wreg free
   506                           
   507                           ;TechDemo2_Test_Routine.c: 148: Delay1KTCYx(20);
   508  01FF82  0E14               	movlw	20
   509  01FF84  EC5C  F0FE         	call	_Delay1KTCYx
   510  01FF88  0607               	decf	main@duty_cycle,f,c
   511  01FF8A  A0D8               	btfss	status,0,c
   512  01FF8C  0608               	decf	main@duty_cycle+1,f,c
   513  01FF8E  D7ED               	goto	l1013
   514  01FF90                     l1023:
   515                           
   516                           ;TechDemo2_Test_Routine.c: 149: }
   517                           ;TechDemo2_Test_Routine.c: 151: Delay10KTCYx(250);
   518  01FF90  0EFA               	movlw	250
   519  01FF92  EC6D  F0FE         	call	_Delay10KTCYx
   520                           
   521                           ;TechDemo2_Test_Routine.c: 152: Delay10KTCYx(250);
   522  01FF96  0EFA               	movlw	250
   523  01FF98  EC6D  F0FE         	call	_Delay10KTCYx
   524                           
   525                           ;TechDemo2_Test_Routine.c: 154: SetDCPWM4(526);
   526  01FF9C  0E02               	movlw	2
   527  01FF9E  6E02               	movwf	SetDCPWM4@dutycycle+1,c
   528  01FFA0  0E0E               	movlw	14
   529  01FFA2  6E01               	movwf	SetDCPWM4@dutycycle,c
   530  01FFA4  EC78  F0FE         	call	_SetDCPWM4	;wreg free
   531                           
   532                           ;TechDemo2_Test_Routine.c: 156: Delay10KTCYx(250);
   533  01FFA8  0EFA               	movlw	250
   534  01FFAA  EC6D  F0FE         	call	_Delay10KTCYx
   535                           
   536                           ;TechDemo2_Test_Routine.c: 159: LATDbits.LATD1 = 0;
   537  01FFAE  928C               	bcf	3980,1,c	;volatile
   538                           
   539                           ;TechDemo2_Test_Routine.c: 160: LATDbits.LATD3 = 1;
   540  01FFB0  868C               	bsf	3980,3,c	;volatile
   541                           
   542                           ;TechDemo2_Test_Routine.c: 162: for(duty_cycle = 500; duty_cycle > 263; duty_cycle--) {
   543  01FFB2  0E01               	movlw	1
   544  01FFB4  6E08               	movwf	main@duty_cycle+1,c
   545  01FFB6  0EF4               	movlw	244
   546  01FFB8  6E07               	movwf	main@duty_cycle,c
   547  01FFBA                     l1035:
   548  01FFBA  0E08               	movlw	8
   549  01FFBC  5C07               	subwf	main@duty_cycle,w,c
   550  01FFBE  0E01               	movlw	1
   551  01FFC0  5808               	subwfb	main@duty_cycle+1,w,c
   552  01FFC2  A0D8               	btfss	status,0,c
   553  01FFC4  D00D               	goto	l1045
   554                           
   555                           ;TechDemo2_Test_Routine.c: 163: SetDCPWM5(duty_cycle);
   556  01FFC6  C007  F001         	movff	main@duty_cycle,SetDCPWM5@dutycycle
   557  01FFCA  C008  F002         	movff	main@duty_cycle+1,SetDCPWM5@dutycycle+1
   558  01FFCE  EC95  F0FE         	call	_SetDCPWM5	;wreg free
   559                           
   560                           ;TechDemo2_Test_Routine.c: 164: Delay1KTCYx(20);
   561  01FFD2  0E14               	movlw	20
   562  01FFD4  EC5C  F0FE         	call	_Delay1KTCYx
   563  01FFD8  0607               	decf	main@duty_cycle,f,c
   564  01FFDA  A0D8               	btfss	status,0,c
   565  01FFDC  0608               	decf	main@duty_cycle+1,f,c
   566  01FFDE  D7ED               	goto	l1035
   567  01FFE0                     l1045:
   568                           
   569                           ;TechDemo2_Test_Routine.c: 165: }
   570                           ;TechDemo2_Test_Routine.c: 167: Delay10KTCYx(250);
   571  01FFE0  0EFA               	movlw	250
   572  01FFE2  EC6D  F0FE         	call	_Delay10KTCYx
   573                           
   574                           ;TechDemo2_Test_Routine.c: 168: Delay10KTCYx(250);
   575  01FFE6  0EFA               	movlw	250
   576  01FFE8  EC6D  F0FE         	call	_Delay10KTCYx
   577                           
   578                           ;TechDemo2_Test_Routine.c: 170: SetDCPWM5(526);
   579  01FFEC  0E02               	movlw	2
   580  01FFEE  6E02               	movwf	SetDCPWM5@dutycycle+1,c
   581  01FFF0  0E0E               	movlw	14
   582  01FFF2  6E01               	movwf	SetDCPWM5@dutycycle,c
   583  01FFF4  EC95  F0FE         	call	_SetDCPWM5	;wreg free
   584                           
   585                           ;TechDemo2_Test_Routine.c: 172: Delay10KTCYx(250);
   586  01FFF8  0EFA               	movlw	250
   587  01FFFA  EC6D  F0FE         	call	_Delay10KTCYx
   588  01FFFE  D6DD               	goto	l919
   589  020000                     __end_of_main:
   590                           	opt stack 0
   591                           status	equ	0xFD8
   592                           
   593 ;; *************** function _StartTimer2 *****************
   594 ;; Defined at:
   595 ;;		line 181 in file "TechDemo2_Test_Routine.c"
   596 ;; Parameters:    Size  Location     Type
   597 ;;		None
   598 ;; Auto vars:     Size  Location     Type
   599 ;;		None
   600 ;; Return value:  Size  Location     Type
   601 ;;                  1    wreg      void 
   602 ;; Registers used:
   603 ;;		wreg, status,2
   604 ;; Tracked objects:
   605 ;;		On entry : 0/0
   606 ;;		On exit  : 0/0
   607 ;;		Unchanged: 0/0
   608 ;; Data sizes:     COMRAM   BANK0   BANK1   BANK2   BANK3   BANK4   BANK5   BANK6   BANK7   BANK8   BANK9  BANK10  BANK1
      +1  BANK12  BANK13  BANK14  BANK15
   609 ;;      Params:         0       0       0       0       0       0       0       0       0       0       0       0       
      +0       0       0       0       0
   610 ;;      Locals:         0       0       0       0       0       0       0       0       0       0       0       0       
      +0       0       0       0       0
   611 ;;      Temps:          0       0       0       0       0       0       0       0       0       0       0       0       
      +0       0       0       0       0
   612 ;;      Totals:         0       0       0       0       0       0       0       0       0       0       0       0       
      +0       0       0       0       0
   613 ;;Total ram usage:        0 bytes
   614 ;; Hardware stack levels used:    1
   615 ;; This function calls:
   616 ;;		Nothing
   617 ;; This function is called by:
   618 ;;		_main
   619 ;; This function uses a non-reentrant model
   620 ;;
   621                           
   622                           	psect	text1
   623  01FCAA                     __ptext1:
   624                           	opt stack 0
   625  01FCAA                     _StartTimer2:
   626                           	opt stack 30
   627                           
   628                           ;TechDemo2_Test_Routine.c: 182: PIE1bits.TMR2IE = 0;
   629                           
   630                           ;incstack = 0
   631  01FCAA  929D               	bcf	3997,1,c	;volatile
   632                           
   633                           ;TechDemo2_Test_Routine.c: 183: T2CONbits.T2CKPS1 = 0;
   634  01FCAC  92CA               	bcf	4042,1,c	;volatile
   635                           
   636                           ;TechDemo2_Test_Routine.c: 184: T2CONbits.T2CKPS0 = 0;
   637  01FCAE  90CA               	bcf	4042,0,c	;volatile
   638                           
   639                           ;TechDemo2_Test_Routine.c: 185: T2CONbits.TMR2ON = 1;
   640  01FCB0  84CA               	bsf	4042,2,c	;volatile
   641                           
   642                           ;TechDemo2_Test_Routine.c: 186: PR2 = 130;
   643  01FCB2  0E82               	movlw	130
   644  01FCB4  6ECB               	movwf	4043,c	;volatile
   645  01FCB6  0012               	return		;funcret
   646  01FCB8                     __end_of_StartTimer2:
   647                           	opt stack 0
   648                           status	equ	0xFD8
   649                           
   650 ;; *************** function _SetDCPWM5 *****************
   651 ;; Defined at:
   652 ;;		line 15 in file "C:\Program Files (x86)\Microchip\xc8\v1.38\sources\pic18\plib\PWM\pw5setdc.c"
   653 ;; Parameters:    Size  Location     Type
   654 ;;  dutycycle       2    0[COMRAM] unsigned int 
   655 ;; Auto vars:     Size  Location     Type
   656 ;;  DCycle          2    4[COMRAM] struct PWMDC
   657 ;; Return value:  Size  Location     Type
   658 ;;                  1    wreg      void 
   659 ;; Registers used:
   660 ;;		wreg, status,2, status,0
   661 ;; Tracked objects:
   662 ;;		On entry : 0/0
   663 ;;		On exit  : 0/0
   664 ;;		Unchanged: 0/0
   665 ;; Data sizes:     COMRAM   BANK0   BANK1   BANK2   BANK3   BANK4   BANK5   BANK6   BANK7   BANK8   BANK9  BANK10  BANK1
      +1  BANK12  BANK13  BANK14  BANK15
   666 ;;      Params:         2       0       0       0       0       0       0       0       0       0       0       0       
      +0       0       0       0       0
   667 ;;      Locals:         2       0       0       0       0       0       0       0       0       0       0       0       
      +0       0       0       0       0
   668 ;;      Temps:          2       0       0       0       0       0       0       0       0       0       0       0       
      +0       0       0       0       0
   669 ;;      Totals:         6       0       0       0       0       0       0       0       0       0       0       0       
      +0       0       0       0       0
   670 ;;Total ram usage:        6 bytes
   671 ;; Hardware stack levels used:    1
   672 ;; This function calls:
   673 ;;		Nothing
   674 ;; This function is called by:
   675 ;;		_main
   676 ;; This function uses a non-reentrant model
   677 ;;
   678                           
   679                           	psect	text2
   680  01FD2A                     __ptext2:
   681                           	opt stack 0
   682  01FD2A                     _SetDCPWM5:
   683                           	opt stack 30
   684                           
   685                           ;incstack = 0
   686  01FD2A  C001  F003         	movff	SetDCPWM5@dutycycle,??_SetDCPWM5
   687  01FD2E  C002  F004         	movff	SetDCPWM5@dutycycle+1,??_SetDCPWM5+1
   688  01FD32  0E06               	movlw	6
   689  01FD34                     u175:
   690  01FD34  90D8               	bcf	status,0,c
   691  01FD36  3603               	rlcf	??_SetDCPWM5,f,c
   692  01FD38  3604               	rlcf	??_SetDCPWM5+1,f,c
   693  01FD3A  2EE8               	decfsz	wreg,f,c
   694  01FD3C  D7FB               	goto	u175
   695  01FD3E  C003  F005         	movff	??_SetDCPWM5,SetDCPWM5@DCycle
   696  01FD42  C004  F006         	movff	??_SetDCPWM5+1,SetDCPWM5@DCycle+1
   697  01FD46  C006  FF71         	movff	SetDCPWM5@DCycle+1,3953	;volatile
   698  01FD4A  C005  F003         	movff	SetDCPWM5@DCycle,??_SetDCPWM5
   699  01FD4E  90D8               	bcf	status,0,c
   700  01FD50  3203               	rrcf	??_SetDCPWM5,f,c
   701  01FD52  90D8               	bcf	status,0,c
   702  01FD54  3203               	rrcf	??_SetDCPWM5,f,c
   703  01FD56  0E30               	movlw	48
   704  01FD58  1603               	andwf	??_SetDCPWM5,f,c
   705  01FD5A  5070               	movf	3952,w,c	;volatile
   706  01FD5C  0BCF               	andlw	207
   707  01FD5E  1003               	iorwf	??_SetDCPWM5,w,c
   708  01FD60  6E70               	movwf	3952,c	;volatile
   709  01FD62  0012               	return		;funcret
   710  01FD64                     __end_of_SetDCPWM5:
   711                           	opt stack 0
   712                           wreg	equ	0xFE8
   713                           status	equ	0xFD8
   714                           
   715 ;; *************** function _SetDCPWM4 *****************
   716 ;; Defined at:
   717 ;;		line 17 in file "C:\Program Files (x86)\Microchip\xc8\v1.38\sources\pic18\plib\PWM\pw4setdc.c"
   718 ;; Parameters:    Size  Location     Type
   719 ;;  dutycycle       2    0[COMRAM] unsigned int 
   720 ;; Auto vars:     Size  Location     Type
   721 ;;  DCycle          2    4[COMRAM] struct PWMDC
   722 ;; Return value:  Size  Location     Type
   723 ;;                  1    wreg      void 
   724 ;; Registers used:
   725 ;;		wreg, status,2, status,0
   726 ;; Tracked objects:
   727 ;;		On entry : 0/0
   728 ;;		On exit  : 0/0
   729 ;;		Unchanged: 0/0
   730 ;; Data sizes:     COMRAM   BANK0   BANK1   BANK2   BANK3   BANK4   BANK5   BANK6   BANK7   BANK8   BANK9  BANK10  BANK1
      +1  BANK12  BANK13  BANK14  BANK15
   731 ;;      Params:         2       0       0       0       0       0       0       0       0       0       0       0       
      +0       0       0       0       0
   732 ;;      Locals:         2       0       0       0       0       0       0       0       0       0       0       0       
      +0       0       0       0       0
   733 ;;      Temps:          2       0       0       0       0       0       0       0       0       0       0       0       
      +0       0       0       0       0
   734 ;;      Totals:         6       0       0       0       0       0       0       0       0       0       0       0       
      +0       0       0       0       0
   735 ;;Total ram usage:        6 bytes
   736 ;; Hardware stack levels used:    1
   737 ;; This function calls:
   738 ;;		Nothing
   739 ;; This function is called by:
   740 ;;		_main
   741 ;; This function uses a non-reentrant model
   742 ;;
   743                           
   744                           	psect	text3
   745  01FCF0                     __ptext3:
   746                           	opt stack 0
   747  01FCF0                     _SetDCPWM4:
   748                           	opt stack 30
   749                           
   750                           ;incstack = 0
   751  01FCF0  C001  F003         	movff	SetDCPWM4@dutycycle,??_SetDCPWM4
   752  01FCF4  C002  F004         	movff	SetDCPWM4@dutycycle+1,??_SetDCPWM4+1
   753  01FCF8  0E06               	movlw	6
   754  01FCFA                     u165:
   755  01FCFA  90D8               	bcf	status,0,c
   756  01FCFC  3603               	rlcf	??_SetDCPWM4,f,c
   757  01FCFE  3604               	rlcf	??_SetDCPWM4+1,f,c
   758  01FD00  2EE8               	decfsz	wreg,f,c
   759  01FD02  D7FB               	goto	u165
   760  01FD04  C003  F005         	movff	??_SetDCPWM4,SetDCPWM4@DCycle
   761  01FD08  C004  F006         	movff	??_SetDCPWM4+1,SetDCPWM4@DCycle+1
   762  01FD0C  C006  FF74         	movff	SetDCPWM4@DCycle+1,3956	;volatile
   763  01FD10  C005  F003         	movff	SetDCPWM4@DCycle,??_SetDCPWM4
   764  01FD14  90D8               	bcf	status,0,c
   765  01FD16  3203               	rrcf	??_SetDCPWM4,f,c
   766  01FD18  90D8               	bcf	status,0,c
   767  01FD1A  3203               	rrcf	??_SetDCPWM4,f,c
   768  01FD1C  0E30               	movlw	48
   769  01FD1E  1603               	andwf	??_SetDCPWM4,f,c
   770  01FD20  5073               	movf	3955,w,c	;volatile
   771  01FD22  0BCF               	andlw	207
   772  01FD24  1003               	iorwf	??_SetDCPWM4,w,c
   773  01FD26  6E73               	movwf	3955,c	;volatile
   774  01FD28  0012               	return		;funcret
   775  01FD2A                     __end_of_SetDCPWM4:
   776                           	opt stack 0
   777                           wreg	equ	0xFE8
   778                           status	equ	0xFD8
   779                           
   780 ;; *************** function _Delay1KTCYx *****************
   781 ;; Defined at:
   782 ;;		line 8 in file "C:\Program Files (x86)\Microchip\xc8\v1.38\sources\pic18\d1ktcyx.c"
   783 ;; Parameters:    Size  Location     Type
   784 ;;  unit            1    wreg     unsigned char 
   785 ;; Auto vars:     Size  Location     Type
   786 ;;  unit            1    0[COMRAM] unsigned char 
   787 ;; Return value:  Size  Location     Type
   788 ;;                  1    wreg      void 
   789 ;; Registers used:
   790 ;;		wreg
   791 ;; Tracked objects:
   792 ;;		On entry : 0/0
   793 ;;		On exit  : 0/0
   794 ;;		Unchanged: 0/0
   795 ;; Data sizes:     COMRAM   BANK0   BANK1   BANK2   BANK3   BANK4   BANK5   BANK6   BANK7   BANK8   BANK9  BANK10  BANK1
      +1  BANK12  BANK13  BANK14  BANK15
   796 ;;      Params:         0       0       0       0       0       0       0       0       0       0       0       0       
      +0       0       0       0       0
   797 ;;      Locals:         1       0       0       0       0       0       0       0       0       0       0       0       
      +0       0       0       0       0
   798 ;;      Temps:          0       0       0       0       0       0       0       0       0       0       0       0       
      +0       0       0       0       0
   799 ;;      Totals:         1       0       0       0       0       0       0       0       0       0       0       0       
      +0       0       0       0       0
   800 ;;Total ram usage:        1 bytes
   801 ;; Hardware stack levels used:    1
   802 ;; This function calls:
   803 ;;		Nothing
   804 ;; This function is called by:
   805 ;;		_main
   806 ;; This function uses a non-reentrant model
   807 ;;
   808                           
   809                           	psect	text4
   810  01FCB8                     __ptext4:
   811                           	opt stack 0
   812  01FCB8                     _Delay1KTCYx:
   813                           	opt stack 30
   814                           
   815                           ;incstack = 0
   816                           ;Delay1KTCYx@unit stored from wreg
   817  01FCB8  6E01               	movwf	Delay1KTCYx@unit,c
   818  01FCBA  0EFA               	movlw	250
   819  01FCBC                     u317:
   820  01FCBC  F000               	nop	
   821  01FCBE  2EE8               	decfsz	wreg,f,c
   822  01FCC0  D7FD               	goto	u317
   823  01FCC2  2E01               	decfsz	Delay1KTCYx@unit,f,c
   824  01FCC4  D7FA               	goto	l711
   825  01FCC6  0012               	return	
   826  01FCC8                     __end_of_Delay1KTCYx:
   827                           	opt stack 0
   828                           wreg	equ	0xFE8
   829                           status	equ	0xFD8
   830                           
   831 ;; *************** function _Delay10KTCYx *****************
   832 ;; Defined at:
   833 ;;		line 8 in file "C:\Program Files (x86)\Microchip\xc8\v1.38\sources\pic18\d10ktcyx.c"
   834 ;; Parameters:    Size  Location     Type
   835 ;;  unit            1    wreg     unsigned char 
   836 ;; Auto vars:     Size  Location     Type
   837 ;;  unit            1    1[COMRAM] unsigned char 
   838 ;; Return value:  Size  Location     Type
   839 ;;                  1    wreg      void 
   840 ;; Registers used:
   841 ;;		wreg
   842 ;; Tracked objects:
   843 ;;		On entry : 0/0
   844 ;;		On exit  : 0/0
   845 ;;		Unchanged: 0/0
   846 ;; Data sizes:     COMRAM   BANK0   BANK1   BANK2   BANK3   BANK4   BANK5   BANK6   BANK7   BANK8   BANK9  BANK10  BANK1
      +1  BANK12  BANK13  BANK14  BANK15
   847 ;;      Params:         0       0       0       0       0       0       0       0       0       0       0       0       
      +0       0       0       0       0
   848 ;;      Locals:         1       0       0       0       0       0       0       0       0       0       0       0       
      +0       0       0       0       0
   849 ;;      Temps:          1       0       0       0       0       0       0       0       0       0       0       0       
      +0       0       0       0       0
   850 ;;      Totals:         2       0       0       0       0       0       0       0       0       0       0       0       
      +0       0       0       0       0
   851 ;;Total ram usage:        2 bytes
   852 ;; Hardware stack levels used:    1
   853 ;; This function calls:
   854 ;;		Nothing
   855 ;; This function is called by:
   856 ;;		_main
   857 ;; This function uses a non-reentrant model
   858 ;;
   859                           
   860                           	psect	text5
   861  01FCDA                     __ptext5:
   862                           	opt stack 0
   863  01FCDA                     _Delay10KTCYx:
   864                           	opt stack 30
   865                           
   866                           ;incstack = 0
   867                           ;Delay10KTCYx@unit stored from wreg
   868  01FCDA  6E02               	movwf	Delay10KTCYx@unit,c
   869  01FCDC  0E0D               	movlw	13
   870  01FCDE  6E01               	movwf	??_Delay10KTCYx& (0+255),c
   871  01FCE0  0EFC               	movlw	252
   872  01FCE2                     u327:
   873  01FCE2  2EE8               	decfsz	wreg,f,c
   874  01FCE4  D7FE               	goto	u327
   875  01FCE6  2E01               	decfsz	??_Delay10KTCYx& (0+255),f,c
   876  01FCE8  D7FC               	goto	u327
   877  01FCEA  2E02               	decfsz	Delay10KTCYx@unit,f,c
   878  01FCEC  D7F7               	goto	l715
   879  01FCEE  0012               	return	
   880  01FCF0                     __end_of_Delay10KTCYx:
   881                           	opt stack 0
   882                           wreg	equ	0xFE8
   883                           status	equ	0xFD8
   884                           
   885 ;; *************** function _ConfigPWM *****************
   886 ;; Defined at:
   887 ;;		line 189 in file "TechDemo2_Test_Routine.c"
   888 ;; Parameters:    Size  Location     Type
   889 ;;		None
   890 ;; Auto vars:     Size  Location     Type
   891 ;;		None
   892 ;; Return value:  Size  Location     Type
   893 ;;                  1    wreg      void 
   894 ;; Registers used:
   895 ;;		None
   896 ;; Tracked objects:
   897 ;;		On entry : 0/0
   898 ;;		On exit  : 0/0
   899 ;;		Unchanged: 0/0
   900 ;; Data sizes:     COMRAM   BANK0   BANK1   BANK2   BANK3   BANK4   BANK5   BANK6   BANK7   BANK8   BANK9  BANK10  BANK1
      +1  BANK12  BANK13  BANK14  BANK15
   901 ;;      Params:         0       0       0       0       0       0       0       0       0       0       0       0       
      +0       0       0       0       0
   902 ;;      Locals:         0       0       0       0       0       0       0       0       0       0       0       0       
      +0       0       0       0       0
   903 ;;      Temps:          0       0       0       0       0       0       0       0       0       0       0       0       
      +0       0       0       0       0
   904 ;;      Totals:         0       0       0       0       0       0       0       0       0       0       0       0       
      +0       0       0       0       0
   905 ;;Total ram usage:        0 bytes
   906 ;; Hardware stack levels used:    1
   907 ;; This function calls:
   908 ;;		Nothing
   909 ;; This function is called by:
   910 ;;		_main
   911 ;; This function uses a non-reentrant model
   912 ;;
   913                           
   914                           	psect	text6
   915  01FCC8                     __ptext6:
   916                           	opt stack 0
   917  01FCC8                     _ConfigPWM:
   918                           	opt stack 30
   919                           
   920                           ;TechDemo2_Test_Routine.c: 190: CCP4CONbits.CCP4M3 = 1;
   921                           
   922                           ;incstack = 0
   923  01FCC8  8673               	bsf	3955,3,c	;volatile
   924                           
   925                           ;TechDemo2_Test_Routine.c: 191: CCP4CONbits.CCP4M2 = 1;
   926  01FCCA  8473               	bsf	3955,2,c	;volatile
   927                           
   928                           ;TechDemo2_Test_Routine.c: 192: CCP4CONbits.CCP4M1 = 0;
   929  01FCCC  9273               	bcf	3955,1,c	;volatile
   930                           
   931                           ;TechDemo2_Test_Routine.c: 193: CCP4CONbits.CCP4M0 = 0;
   932  01FCCE  9073               	bcf	3955,0,c	;volatile
   933                           
   934                           ;TechDemo2_Test_Routine.c: 195: CCP5CONbits.CCP5M3 = 1;
   935  01FCD0  8670               	bsf	3952,3,c	;volatile
   936                           
   937                           ;TechDemo2_Test_Routine.c: 196: CCP5CONbits.CCP5M2 = 1;
   938  01FCD2  8470               	bsf	3952,2,c	;volatile
   939                           
   940                           ;TechDemo2_Test_Routine.c: 197: CCP5CONbits.CCP5M1 = 0;
   941  01FCD4  9270               	bcf	3952,1,c	;volatile
   942                           
   943                           ;TechDemo2_Test_Routine.c: 198: CCP5CONbits.CCP5M0 = 0;
   944  01FCD6  9070               	bcf	3952,0,c	;volatile
   945  01FCD8  0012               	return		;funcret
   946  01FCDA                     __end_of_ConfigPWM:
   947                           	opt stack 0
   948  0000                     wreg	equ	0xFE8
   949                           status	equ	0xFD8
   950                           wreg	equ	0xFE8
   951                           status	equ	0xFD8
   952                           
   953                           	psect	rparam
   954  0000                     wreg	equ	0xFE8
   955                           status	equ	0xFD8


Data Sizes:
    Strings     0
    Constant    0
    Data        0
    BSS         0
    Persistent  0
    Stack       0

Auto Spaces:
    Space          Size  Autos    Used
    COMRAM           95      8       8
    BANK0           160      0       0
    BANK1           256      0       0
    BANK2           256      0       0
    BANK3           256      0       0
    BANK4           256      0       0
    BANK5           256      0       0
    BANK6           256      0       0
    BANK7           256      0       0
    BANK8           256      0       0
    BANK9           256      0       0
    BANK10          256      0       0
    BANK11          256      0       0
    BANK12          256      0       0
    BANK13          256      0       0
    BANK14          256      0       0
    BANK15           96      0       0

Pointer List with Targets:

    None.

Critical Paths under _main in COMRAM

    _main->_SetDCPWM4
    _main->_SetDCPWM5

Critical Paths under _main in BANK0

    None.

Critical Paths under _main in BANK1

    None.

Critical Paths under _main in BANK2

    None.

Critical Paths under _main in BANK3

    None.

Critical Paths under _main in BANK4

    None.

Critical Paths under _main in BANK5

    None.

Critical Paths under _main in BANK6

    None.

Critical Paths under _main in BANK7

    None.

Critical Paths under _main in BANK8

    None.

Critical Paths under _main in BANK9

    None.

Critical Paths under _main in BANK10

    None.

Critical Paths under _main in BANK11

    None.

Critical Paths under _main in BANK12

    None.

Critical Paths under _main in BANK13

    None.

Critical Paths under _main in BANK14

    None.

Critical Paths under _main in BANK15

    None.

Call Graph Tables:

 ---------------------------------------------------------------------------------
 (Depth) Function   	        Calls       Base Space   Used Autos Params    Refs
 ---------------------------------------------------------------------------------
 (0) _main                                                 2     2      0    1609
                                              6 COMRAM     2     2      0
                          _ConfigPWM
                       _Delay10KTCYx
                        _Delay1KTCYx
                          _SetDCPWM4
                          _SetDCPWM5
                        _StartTimer2
 ---------------------------------------------------------------------------------
 (1) _StartTimer2                                          0     0      0       0
 ---------------------------------------------------------------------------------
 (1) _SetDCPWM5                                            6     4      2     541
                                              0 COMRAM     6     4      2
 ---------------------------------------------------------------------------------
 (1) _SetDCPWM4                                            6     4      2     541
                                              0 COMRAM     6     4      2
 ---------------------------------------------------------------------------------
 (1) _Delay1KTCYx                                          1     1      0      15
                                              0 COMRAM     1     1      0
 ---------------------------------------------------------------------------------
 (1) _Delay10KTCYx                                         2     2      0      15
                                              0 COMRAM     2     2      0
 ---------------------------------------------------------------------------------
 (1) _ConfigPWM                                            0     0      0       0
 ---------------------------------------------------------------------------------
 Estimated maximum stack depth 1
 ---------------------------------------------------------------------------------

 Call Graph Graphs:

 _main (ROOT)
   _ConfigPWM
   _Delay10KTCYx
   _Delay1KTCYx
   _SetDCPWM4
   _SetDCPWM5
   _StartTimer2

 Address spaces:
Name               Size   Autos  Total    Cost      Usage
BITCOMRAM           5F      0       0       0        0.0%
EEDATA             400      0       0       0        0.0%
NULL                 0      0       0       0        0.0%
CODE                 0      0       0       0        0.0%
COMRAM              5F      8       8       1        8.4%
STACK                0      0       0       2        0.0%
DATA                 0      0       0       3        0.0%
BITBANK0            A0      0       0       4        0.0%
BANK0               A0      0       0       5        0.0%
BITBANK1           100      0       0       6        0.0%
BANK1              100      0       0       7        0.0%
BITBANK2           100      0       0       8        0.0%
BANK2              100      0       0       9        0.0%
BITBANK3           100      0       0      10        0.0%
BANK3              100      0       0      11        0.0%
BITBANK4           100      0       0      12        0.0%
BANK4              100      0       0      13        0.0%
BITBANK5           100      0       0      14        0.0%
BANK5              100      0       0      15        0.0%
BITBANK6           100      0       0      16        0.0%
BANK6              100      0       0      17        0.0%
BITBANK7           100      0       0      18        0.0%
BANK7              100      0       0      19        0.0%
BITBANK8           100      0       0      20        0.0%
BANK8              100      0       0      21        0.0%
BITBANK9           100      0       0      22        0.0%
BANK9              100      0       0      23        0.0%
BITBANK10          100      0       0      24        0.0%
BANK10             100      0       0      25        0.0%
BITBANK11          100      0       0      26        0.0%
BANK11             100      0       0      27        0.0%
BITBANK12          100      0       0      28        0.0%
BANK12             100      0       0      29        0.0%
BITBANK13          100      0       0      30        0.0%
BANK13             100      0       0      31        0.0%
ABS                  0      0       0      32        0.0%
BITBANK14          100      0       0      33        0.0%
BANK14             100      0       0      34        0.0%
BITBANK15           60      0       0      35        0.0%
BANK15              60      0       0      36        0.0%
BIGRAM             F5F      0       0      37        0.0%
BITSFR               0      0       0      40        0.0%
SFR                  0      0       0      40        0.0%


Microchip Technology PIC18 Macro Assembler V1.38 build -256452561 
Symbol Table                                                                                   Tue Feb 14 17:07:46 2017

            __CFG_BORV$3 000000             __CFG_CP0$OFF 000000             __CFG_CP1$OFF 000000  
           __CFG_CP2$OFF 000000             __CFG_CP3$OFF 000000              __CFG_OSC$HS 000000  
           __CFG_CP4$OFF 000000             __CFG_CP5$OFF 000000             __CFG_CP6$OFF 000000  
           __CFG_CP7$OFF 000000                      l711 FCBA                      l715 FCDC  
                    l925 FDCA                      l935 FDFC                      l919 FDBA  
                    l947 FE32                      l957 FE64                      l991 FF02  
                    l969 FE9A                      l979 FECC             __CFG_CPB$OFF 000000  
                    u317 FCBC                      u165 FCFA                      _PR2 000FCB  
                    u327 FCE2                      u175 FD34             __CFG_CPD$OFF 000000  
                    wreg 000FE8             __CFG_MODE$MC 000000             __CFG_LVP$OFF 000000  
           __CFG_WDT$OFF 000000                     l1001 FF34                     l1013 FF6A  
                   l1023 FF90                     l1035 FFBA                     l1045 FFE0  
                   _LATF 000F8E                     _main FD64                     start 0000  
          __CFG_IESO$OFF 000000            __CFG_MCLRE$ON 000000             ___param_bank 000010  
            _Delay1KTCYx FCB8            __CFG_WAIT$OFF 000000                    ?_main 0001  
                  _TRISA 000F92                    _TRISC 000F94                    _TRISD 000F95  
                  _TRISF 000F97                    _TRISH 000F99                    _TRISJ 000F9A  
  __size_of_Delay10KTCYx 0016            __CFG_PWRT$OFF 000000            __CFG_WRT0$OFF 000000  
          __CFG_WRT1$OFF 000000            __CFG_WRT2$OFF 000000            __CFG_WRT3$OFF 000000  
          __CFG_WRT4$OFF 000000            __CFG_WRT5$OFF 000000            __CFG_WRT6$OFF 000000  
          __CFG_WRT7$OFF 000000           __CFG_EBTR0$OFF 000000           __CFG_FCMEN$OFF 000000  
         __CFG_EBTR1$OFF 000000           __CFG_EBTR2$OFF 000000           __CFG_EBTR3$OFF 000000  
         __CFG_EBTR4$OFF 000000           __CFG_EBTR5$OFF 000000           __CFG_EBTR6$OFF 000000  
         __CFG_EBTR7$OFF 000000            __CFG_WRTB$OFF 000000            __CFG_WRTC$OFF 000000  
          __CFG_WRTD$OFF 000000           __CFG_EBTRB$OFF 000000           __CFG_BOREN$OFF 000000  
                  status 000FD8          __initialization FCA4             __end_of_main 0000  
           _Delay10KTCYx FCDA                   ??_main 0007            __activetblptr 000000  
     __size_of_ConfigPWM 0012                   _CCPR4L 000F74                   _CCPR5L 000F71  
        __CFG_BBSIZ$BB2K 000000       __size_of_SetDCPWM4 003A       __size_of_SetDCPWM5 003A  
         __CFG_XINST$OFF 000000           __CFG_STVREN$ON 000000               __accesstop 0060  
__end_of__initialization FCA4            ___rparam_used 000001        __end_of_ConfigPWM FCDA  
         __pcstackCOMRAM 0001            ??_StartTimer2 0001        __end_of_SetDCPWM4 FD2A  
      __end_of_SetDCPWM5 FD64       __CFG_CCP2MX$PORTBE 000000                  _CCP4CON 000F73  
                _CCP5CON 000F70             ?_Delay1KTCYx 0001      __end_of_StartTimer2 FCB8  
         main@duty_cycle 0007                  __Hparam 0000                  __Lparam 0000  
                __pcinit FCA4                  __ramtop 1000                  __ptext0 FD64  
                __ptext1 FCAA                  __ptext2 FD2A                  __ptext3 FCF0  
                __ptext4 FCB8                  __ptext5 FCDA                  __ptext6 FCC8  
              _T2CONbits 000FCA     end_of_initialization FCA4              _StartTimer2 FCAA  
              _PORTJbits 000F88                _TRISGbits 000F98              _CCP4CONbits 000F73  
            _CCP5CONbits 000F70                _ConfigPWM FCC8     __size_of_Delay1KTCYx 0010  
    start_initialization FCA4                _SetDCPWM4 FCF0                _SetDCPWM5 FD2A  
        SetDCPWM4@DCycle 0005          SetDCPWM5@DCycle 0005               ?_ConfigPWM 0001  
       __CFG_LPT1OSC$OFF 000000               ?_SetDCPWM4 0001               ?_SetDCPWM5 0001  
        Delay1KTCYx@unit 0001            ?_Delay10KTCYx 0001                 _LATAbits 000F89  
               _LATDbits 000F8C                 _LATHbits 000F90                 _PIE1bits 000F9D  
  __CFG_DATABW$DATA16BIT 000000         __CFG_WDTPS$32768 000000           ??_Delay10KTCYx 0001  
           ?_StartTimer2 0001              ??_ConfigPWM 0001        __CFG_ECCPMX$PORTE 000000  
            ??_SetDCPWM4 0003              ??_SetDCPWM5 0003         Delay10KTCYx@unit 0002  
               __Hrparam 0000                 __Lrparam 0000       SetDCPWM4@dutycycle 0001  
     SetDCPWM5@dutycycle 0001            __size_of_main 029C            ??_Delay1KTCYx 0001  
  __CFG_ADDRBW$ADDR20BIT 000000     __end_of_Delay10KTCYx FCF0     __size_of_StartTimer2 000E  
    __end_of_Delay1KTCYx FCC8  
